ccopy_reg
_reconstructor
p1
(ccanto.feedparser_builtin
FeedParserDict
p2
c__builtin__
dict
p3
(dp4
S'feed'
p5
g1
(g2
g3
(dp6
S'title_detail'
p7
g1
(g2
g3
(dp8
S'base'
p9
S'http://www.opennet.ru/opennews/opennews_all_noadv.rss'
p10
sS'type'
p11
S'text/plain'
p12
sS'language'
p13
NsS'value'
p14
VOpenNews.opennet.ru: \u041e\u0431\u0449\u0430\u044f \u043b\u0435\u043d\u0442\u0430 \u043d\u043e\u0432\u043e\u0441\u0442\u0435\u0439
p15
stRp16
sS'subtitle'
p17
VOpenNews - \u041d\u043e\u0432\u043e\u0441\u0442\u0438 \u043c\u0438\u0440\u0430 \u043e\u0442\u043a\u0440\u044b\u0442\u044b\u0445 \u0441\u0438\u0441\u0442\u0435\u043c (\u041e\u0431\u0449\u0430\u044f \u043b\u0435\u043d\u0442\u0430 \u043d\u043e\u0432\u043e\u0441\u0442\u0435\u0439)
p18
sS'links'
p19
(lp20
g1
(g2
g3
(dp21
S'href'
p22
Vhttp://www.opennet.ru/opennews/
p23
sg11
S'text/html'
p24
sS'rel'
p25
S'alternate'
p26
stRp27
asS'title'
p28
g15
sS'link'
p29
g23
sS'subtitle_detail'
p30
g1
(g2
g3
(dp31
g9
S'http://www.opennet.ru/opennews/opennews_all_noadv.rss'
p32
sg11
S'text/html'
p33
sg13
Nsg14
g18
stRp34
stRp35
sS'status'
p36
I200
sS'updated'
p37
ctime
struct_time
p38
((I2014
I2
I28
I15
I10
I3
I4
I59
I0
t(dtRp39
sS'encoding'
p40
S'koi8-r'
p41
sS'bozo'
p42
I0
sS'entries'
p43
(lp44
g1
(g2
g3
(dp45
g37
VFri, 28 Feb 2014 10:43:01 +0600
p46
sS'updated_parsed'
p47
g38
((I2014
I2
I28
I4
I43
I1
I4
I59
I0
t(dtRp48
sg19
(lp49
g1
(g2
g3
(dp50
g22
Vhttp://www.opennet.ru/opennews/art.shtml?num=39211
p51
sg11
g24
sg25
g26
stRp52
asg28
VUbuntu 14.04 \u043f\u0435\u0440\u0435\u0448\u0451\u043b \u043d\u0430 \u0441\u0442\u0430\u0434\u0438\u044e \u0431\u0435\u0442\u0430-\u0442\u0435\u0441\u0442\u0438\u0440\u043e\u0432\u0430\u043d\u0438\u044f
p53
sS'summary_detail'
p54
g1
(g2
g3
(dp55
g9
S'http://www.opennet.ru/opennews/opennews_all_noadv.rss'
p56
sg11
S'text/html'
p57
sg13
Nsg14
V\u041d\u0430\u0447\u0430\u043b\u043e\u0441\u044c \u0442\u0435\u0441\u0442\u0438\u0440\u043e\u0432\u0430\u043d\u0438\u0435 \u0431\u0435\u0442\u0430-\u0432\u0435\u0440\u0441\u0438\u0438 \u0434\u0438\u0441\u0442\u0440\u0438\u0431\u0443\u0442\u0438\u0432\u0430 Ubuntu 14.04 "Trusty Tahr", \u043a\u043e\u0442\u043e\u0440\u044b\u0439 \u043e\u0442\u043d\u0435\u0441\u0451\u043d \u043a \u043a\u0430\u0442\u0435\u0433\u043e\u0440\u0438\u0438 \u0432\u044b\u043f\u0443\u0441\u043a\u043e\u0432 \u0441 \u0434\u043b\u0438\u0442\u0435\u043b\u044c\u043d\u044b\u043c \u0441\u0440\u043e\u043a\u043e\u043c \u043f\u043e\u0434\u0434\u0435\u0440\u0436\u043a\u0438 (LTS), \u043e\u0431\u043d\u043e\u0432\u043b\u0435\u043d\u0438\u044f \u0434\u043b\u044f \u043a\u043e\u0442\u043e\u0440\u044b\u0445 \u0444\u043e\u0440\u043c\u0438\u0440\u0443\u044e\u0442\u0441\u044f \u0432 \u0442\u0435\u0447\u0435\u043d\u0438\u0435 5 \u043b\u0435\u0442.  \u0412 \u0441\u043e\u043e\u0442\u0432\u0435\u0442\u0441\u0442\u0432\u0438\u0438 \u0441 \u043f\u043b\u0430\u043d\u043e\u043c \u0440\u0430\u0437\u0440\u0430\u0431\u043e\u0442\u043a\u0438, \u0443\u0436\u0435 \u043e\u043f\u0440\u043e\u0431\u043e\u0432\u0430\u043d\u043d\u043e\u043c \u043f\u0440\u0438 \u043f\u043e\u0434\u0433\u043e\u0442\u043e\u0432\u043a\u0435 Ubuntu 13.04 \u0438 13.10, \u043e\u0442\u0434\u0435\u043b\u044c\u043d\u044b\u0435 \u0430\u043b\u044c\u0444\u0430-\u0441\u0431\u043e\u0440\u043a\u0438 \u043d\u0435 \u0431\u0443\u0434\u0443\u0442 \u0441\u0444\u043e\u0440\u043c\u0438\u0440\u043e\u0432\u0430\u043d\u044b, \u0432\u043c\u0435\u0441\u0442\u043e \u043d\u0438\u0445 \u0434\u043b\u044f \u0442\u0435\u0441\u0442\u0438\u0440\u043e\u0432\u0430\u043d\u0438\u044f \u043f\u0440\u0435\u0434\u043b\u0430\u0433\u0430\u0435\u0442\u0441\u044f \u0438\u0441\u043f\u043e\u043b\u044c\u0437\u043e\u0432\u0430\u0442\u044c \u0435\u0436\u0435\u0434\u043d\u0435\u0432\u043d\u044b\u0435 \u044d\u043a\u0441\u043f\u0435\u0440\u0438\u043c\u0435\u043d\u0442\u0430\u043b\u044c\u043d\u044b\u0435 \u0441\u0431\u043e\u0440\u043a\u0438. \u0413\u043e\u0442\u043e\u0432\u044b\u0435 \u0442\u0435\u0441\u0442\u043e\u0432\u044b\u0435 \u043e\u0431\u0440\u0430\u0437\u044b \u0441\u043e\u0437\u0434\u0430\u043d\u044b \u0442\u043e\u043b\u044c\u043a\u043e \u0434\u043b\u044f Edubuntu, Ubuntu GNOME, Xubuntu, Lubuntu, Kubuntu, Ubuntu Studio \u0438 Ubuntu Cloud. \u0424\u0438\u043d\u0430\u043b\u044c\u043d\u0430\u044f \u0431\u0435\u0442\u0430-\u0432\u0435\u0440\u0441\u0438\u044f Ubuntu 14.04, \u0437\u0430\u043f\u043b\u0430\u043d\u0438\u0440\u043e\u0432\u0430\u043d\u043d\u0430\u044f \u043d\u0430 27 \u043c\u0430\u0440\u0442\u0430, \u0431\u0443\u0434\u0435\u0442 \u0434\u043e\u0441\u0442\u0443\u043f\u043d\u0430 \u0432 \u0432\u0438\u0434\u0435 \u043f\u043e\u043b\u043d\u043e\u0446\u0435\u043d\u043d\u043e\u0439 \u0441\u0431\u043e\u0440\u043a\u0438. \u0420\u0435\u043b\u0438\u0437 \u043d\u0430\u043c\u0435\u0447\u0435\u043d \u043d\u0430 17 \u0430\u043f\u0440\u0435\u043b\u044f.
p58
stRp59
sS'summary'
p60
g58
sS'guidislink'
p61
I00
sS'title_detail'
p62
g1
(g2
g3
(dp63
g9
S'http://www.opennet.ru/opennews/opennews_all_noadv.rss'
p64
sg11
S'text/plain'
p65
sg13
Nsg14
g53
stRp66
sg29
g51
sS'canto_state'
p67
(lp68
VOpenNews.opennet.ru: \u041e\u0431\u0449\u0430\u044f \u043b\u0435\u043d\u0442\u0430 \u043d\u043e\u0432\u043e\u0441\u0442\u0435\u0439
p69
aV*
aS'read'
p70
asS'id'
p71
Vhttp://www.opennet.ru/opennews/art.shtml?num=39211
p72
stRp73
ag1
(g2
g3
(dp74
g37
VFri, 28 Feb 2014 09:54:11 +0600
p75
sg47
g38
((I2014
I2
I28
I3
I54
I11
I4
I59
I0
t(dtRp76
sg19
(lp77
g1
(g2
g3
(dp78
g22
Vhttp://www.opennet.ru/opennews/art.shtml?num=39212
p79
sg11
g24
sg25
g26
stRp80
asg28
V\u0421\u0442\u0430\u0440\u0442\u043e\u0432\u0430\u043b \u043a\u043e\u043d\u043a\u0443\u0440\u0441 \u0440\u0430\u0437\u0440\u0430\u0431\u043e\u0442\u0447\u0438\u043a\u043e\u0432 \u043f\u0440\u0438\u043b\u043e\u0436\u0435\u043d\u0438\u0439 Ubuntu App Showdown
p81
sS'summary_detail'
p82
g1
(g2
g3
(dp83
g9
S'http://www.opennet.ru/opennews/opennews_all_noadv.rss'
p84
sg11
S'text/html'
p85
sg13
Nsg14
V\u041a\u043e\u043c\u043f\u0430\u043d\u0438\u044f Canonical \u043e\u0431\u044a\u044f\u0432\u0438\u043b\u0430 \u043e  \u043f\u0440\u043e\u0432\u0435\u0434\u0435\u043d\u0438\u0438 \u043a\u043e\u043d\u043a\u0443\u0440\u0441\u0430 \u0440\u0430\u0437\u0440\u0430\u0431\u043e\u0442\u0447\u0438\u043a\u043e\u0432 \u043f\u0440\u0438\u043b\u043e\u0436\u0435\u043d\u0438\u0439 Ubuntu App Showdown, \u043d\u0430\u043f\u0440\u0430\u0432\u043b\u0435\u043d\u043d\u043e\u0433\u043e \u043d\u0430 \u0441\u0442\u0438\u043c\u0443\u043b\u0438\u0440\u043e\u0432\u0430\u043d\u0438\u0435 \u0441\u043e\u0437\u0434\u0430\u043d\u0438\u0435 \u043f\u0440\u0438\u043b\u043e\u0436\u0435\u043d\u0438\u0439 \u0434\u043b\u044f \u043f\u043b\u0430\u0442\u0444\u043e\u0440\u043c\u044b Ubuntu \u0441 \u0438\u0441\u043f\u043e\u043b\u044c\u0437\u043e\u0432\u0430\u043d\u0438\u0435\u043c \u043d\u043e\u0432\u043e\u0433\u043e Ubuntu SDK. \u0420\u0430\u0431\u043e\u0442\u044b \u043f\u0440\u0438\u043d\u0438\u043c\u0430\u044e\u0442\u0441\u044f \u0432 4 \u043a\u0430\u0442\u0435\u0433\u043e\u0440\u0438\u044f\u0445.
p86
stRp87
sg60
g86
sg61
I00
sS'title_detail'
p88
g1
(g2
g3
(dp89
g9
S'http://www.opennet.ru/opennews/opennews_all_noadv.rss'
p90
sg11
S'text/plain'
p91
sg13
Nsg14
g81
stRp92
sg29
g79
sg67
(lp93
g69
aV*
ag70
asg71
Vhttp://www.opennet.ru/opennews/art.shtml?num=39212
p94
stRp95
ag1
(g2
g3
(dp96
g37
VFri, 28 Feb 2014 01:44:50 +0600
p97
sg47
g38
((I2014
I2
I27
I19
I44
I50
I3
I58
I0
t(dtRp98
sg19
(lp99
g1
(g2
g3
(dp100
g22
Vhttp://www.opennet.ru/opennews/art.shtml?num=39210
p101
sg11
g24
sg25
g26
stRp102
asg28
V\u041d\u0430\u0447\u0430\u043b\u0430\u0441\u044c \u0432\u0442\u043e\u0440\u0430\u044f \u043a\u0430\u043c\u043f\u0430\u043d\u0438\u044f \u043f\u043e \u0441\u0431\u043e\u0440\u0443 \u0441\u0440\u0435\u0434\u0441\u0442\u0432 \u0434\u043b\u044f MediaGoblin
p103
sS'summary_detail'
p104
g1
(g2
g3
(dp105
g9
S'http://www.opennet.ru/opennews/opennews_all_noadv.rss'
p106
sg11
S'text/html'
p107
sg13
Nsg14
V\u041f\u0440\u043e\u0435\u043a\u0442 MediaGoblin, \u0432 \u0440\u0430\u043c\u043a\u0430\u0445 \u043a\u043e\u0442\u043e\u0440\u043e\u0433\u043e \u0440\u0430\u0437\u0432\u0438\u0432\u0430\u0435\u0442\u0441\u044f \u0441\u0432\u043e\u0431\u043e\u0434\u043d\u0430\u044f \u0434\u0435\u0446\u0435\u043d\u0442\u0440\u0430\u043b\u0438\u0437\u043e\u0432\u0430\u043d\u043d\u0430\u044f \u043f\u043b\u0430\u0442\u0444\u043e\u0440\u043c\u0430 \u0434\u043b\u044f \u043e\u0440\u0433\u0430\u043d\u0438\u0437\u0430\u0446\u0438\u0438 \u0445\u043e\u0441\u0442\u0438\u043d\u0433\u0430 \u0438 \u043e\u0431\u043c\u0435\u043d\u0430 \u043c\u0435\u0434\u0438\u0430\u043a\u043e\u043d\u0442\u0435\u043d\u0442\u043e\u043c, \u043e\u0431\u044a\u044f\u0432\u0438\u043b \u043e \u043f\u0440\u043e\u0432\u0435\u0434\u0435\u043d\u0438\u0438 \u043a\u0430\u043c\u043f\u0430\u043d\u0438\u0438 \u043f\u043e \u0441\u0431\u043e\u0440\u0443 \u0441\u0440\u0435\u0434\u0441\u0442\u0432 \u0434\u043b\u044f \u043e\u0431\u0435\u0441\u043f\u0435\u0447\u0435\u043d\u0438\u044f \u043f\u043e\u0434\u0434\u0435\u0440\u0436\u043a\u0438 \u0441\u0432\u044f\u0437\u044b\u0432\u0430\u043d\u0438\u044f (\u0444\u0435\u0434\u0435\u0440\u0430\u0446\u0438\u0438) \u044d\u043a\u0437\u0435\u043c\u043f\u043b\u044f\u0440\u043e\u0432 MediaGoblin \u0441 \u0434\u0440\u0443\u0433\u0438\u043c\u0438 \u0430\u043d\u0430\u043b\u043e\u0433\u0438\u0447\u043d\u044b\u043c\u0438 \u0441\u0435\u0440\u0432\u0435\u0440\u0430\u043c\u0438. \u0424\u0435\u0434\u0435\u0440\u0430\u0446\u0438\u044e \u043f\u043b\u0430\u043d\u0438\u0440\u0443\u0435\u0442\u0441\u044f \u0440\u0435\u0430\u043b\u0438\u0437\u043e\u0432\u0430\u0442\u044c \u0441 \u043f\u043e\u043c\u043e\u0449\u044c\u044e Pump API, \u0438\u0441\u043f\u043e\u043b\u044c\u0437\u0443\u0435\u043c\u043e\u0433\u043e \u0432 pump.io. \u041d\u0430 \u0431\u0430\u0437\u0435 \u0444\u0435\u0434\u0435\u0440\u0430\u0446\u0438\u0438 \u043f\u043b\u0430\u043d\u0438\u0440\u0443\u0435\u0442\u0441\u044f \u0440\u0435\u0430\u043b\u0438\u0437\u043e\u0432\u0430\u0442\u044c &#171;\u043b\u0438\u0447\u043d\u044b\u0439&#187; \u043e\u0431\u043c\u0435\u043d \u043c\u0435\u0434\u0438\u0430\u0444\u0430\u0439\u043b\u0430\u043c\u0438. \u041d\u0430 \u043e\u0441\u043d\u043e\u0432\u0435 \u043f\u0440\u043e\u0434\u0435\u043b\u0430\u043d\u043d\u043e\u0439 \u0440\u0430\u0431\u043e\u0442\u044b \u043f\u043b\u0430\u043d\u0438\u0440\u0443\u0435\u0442\u0441\u044f \u0432\u044b\u043f\u0443\u0441\u0442\u0438\u0442\u044c \u0440\u0435\u043b\u0438\u0437 MediaGoblin 1.0.
p108
stRp109
sg60
g108
sg61
I00
sS'title_detail'
p110
g1
(g2
g3
(dp111
g9
S'http://www.opennet.ru/opennews/opennews_all_noadv.rss'
p112
sg11
S'text/plain'
p113
sg13
Nsg14
g103
stRp114
sg29
g101
sg67
(lp115
g69
aV*
ag70
asg71
Vhttp://www.opennet.ru/opennews/art.shtml?num=39210
p116
stRp117
ag1
(g2
g3
(dp118
g37
VThu, 27 Feb 2014 23:54:26 +0600
p119
sg47
g38
((I2014
I2
I27
I17
I54
I26
I3
I58
I0
t(dtRp120
sg19
(lp121
g1
(g2
g3
(dp122
g22
Vhttp://www.opennet.ru/opennews/art.shtml?num=39209
p123
sg11
g24
sg25
g26
stRp124
asg28
V\u0423\u0432\u0435\u0434\u043e\u043c\u043b\u0435\u043d\u0438\u0435 \u043e \u0441\u043a\u043e\u0440\u043e\u043c \u0432\u0432\u043e\u0434\u0435 \u043e\u0433\u0440\u0430\u043d\u0438\u0447\u0435\u043d\u0438\u0439 \u043d\u0430 \u0443\u0441\u0442\u0430\u043d\u043e\u0432\u043a\u0443 \u0432 Chrome \u0441\u0442\u043e\u0440\u043e\u043d\u043d\u0438\u0445 \u0434\u043e\u043f\u043e\u043b\u043d\u0435\u043d\u0438\u0439
p125
sS'summary_detail'
p126
g1
(g2
g3
(dp127
g9
S'http://www.opennet.ru/opennews/opennews_all_noadv.rss'
p128
sg11
S'text/html'
p129
sg13
Nsg14
V\u041a\u043e\u043c\u043f\u0430\u043d\u0438\u044f Google \u0441\u043e\u043e\u0431\u0449\u0438\u043b\u0430 \u043e \u043f\u0435\u0440\u0435\u043d\u043e\u0441\u0435 \u043d\u0430 1 \u043c\u0430\u044f \u0432\u0432\u043e\u0434\u0430 \u0432 \u0434\u0435\u0439\u0441\u0442\u0432\u0438\u0435 \u043e\u0433\u0440\u0430\u043d\u0438\u0447\u0435\u043d\u0438\u0439, \u0431\u043b\u043e\u043a\u0438\u0440\u0443\u044e\u0449\u0438\u0445 \u0432\u043e\u0437\u043c\u043e\u0436\u043d\u043e\u0441\u0442\u044c \u0443\u0441\u0442\u0430\u043d\u043e\u0432\u043a\u0438 \u0434\u043e\u043f\u043e\u043b\u043d\u0435\u043d\u0438\u0439 \u043a \u0431\u0440\u0430\u0443\u0437\u0435\u0440\u0443 Chrome \u0438\u0437 \u0441\u0442\u043e\u0440\u043e\u043d\u043d\u0438\u0445 \u0438\u0441\u0442\u043e\u0447\u043d\u0438\u043a\u043e\u0432. \u0412 \u0441\u0442\u0430\u0431\u0438\u043b\u044c\u043d\u044b\u0445 \u0432\u044b\u043f\u0443\u0441\u043a\u0430\u0445 \u0431\u0440\u0430\u0443\u0437\u0435\u0440\u0430 \u0434\u043b\u044f \u043f\u043b\u0430\u0442\u0444\u043e\u0440\u043c\u044b Windows \u0434\u043e\u043f\u043e\u043b\u043d\u0435\u043d\u0438\u044f \u043c\u043e\u0436\u043d\u043e \u0431\u0443\u0434\u0435\u0442 \u0443\u0441\u0442\u0430\u043d\u043e\u0432\u0438\u0442\u044c \u0442\u043e\u043b\u044c\u043a\u043e \u0438\u0437 \u043a\u0430\u0442\u0430\u043b\u043e\u0433\u0430-\u043c\u0430\u0433\u0430\u0437\u0438\u043d\u0430 Chrome App Store. \u0412\u0441\u0435 \u0440\u0430\u043d\u0435\u0435 \u0443\u0441\u0442\u0430\u043d\u043e\u0432\u043b\u0435\u043d\u043d\u044b\u0435 \u0438\u0437 \u0432\u043d\u0435\u0448\u043d\u0438\u0445 \u0438\u0441\u0442\u043e\u0447\u043d\u0438\u043a\u043e\u0432 \u0434\u043e\u043f\u043e\u043b\u043d\u0435\u043d\u0438\u044f, \u043a\u043e\u0442\u043e\u0440\u044b\u0435 \u043d\u0435 \u043f\u0440\u0435\u0434\u0441\u0442\u0430\u0432\u043b\u0435\u043d\u044b \u0432 App Store, \u0442\u0430\u043a\u0436\u0435 \u0431\u0443\u0434\u0443\u0442 \u0437\u0430\u0431\u043b\u043e\u043a\u0438\u0440\u043e\u0432\u0430\u043d\u044b. \u0420\u0430\u0437\u0440\u0430\u0431\u043e\u0442\u0447\u0438\u043a\u0430\u043c \u0432\u043d\u0435\u0448\u043d\u0438\u0445 \u0434\u043e\u043f\u043e\u043b\u043d\u0435\u043d\u0438\u0439 \u0440\u0435\u043a\u043e\u043c\u0435\u043d\u0434\u0443\u0435\u0442\u0441\u044f \u043f\u043e\u0437\u0430\u0431\u043e\u0442\u0438\u0442\u044c\u0441\u044f \u043e \u0440\u0430\u0437\u043c\u0435\u0449\u0435\u043d\u0438\u0438 \u0434\u043e 1 \u043c\u0430\u044f \u0441\u0432\u043e\u0438\u0445 \u0440\u0430\u0431\u043e\u0442 \u0432 \u043e\u0444\u0438\u0446\u0438\u0430\u043b\u044c\u043d\u043e\u043c \u043a\u0430\u0442\u0430\u043b\u043e\u0433\u0435 Chrome App Store.
p130
stRp131
sg60
g130
sg61
I00
sS'title_detail'
p132
g1
(g2
g3
(dp133
g9
S'http://www.opennet.ru/opennews/opennews_all_noadv.rss'
p134
sg11
S'text/plain'
p135
sg13
Nsg14
g125
stRp136
sg29
g123
sg67
(lp137
g69
aV*
ag70
asg71
Vhttp://www.opennet.ru/opennews/art.shtml?num=39209
p138
stRp139
ag1
(g2
g3
(dp140
g37
VThu, 27 Feb 2014 21:20:21 +0600
p141
sg47
g38
((I2014
I2
I27
I15
I20
I21
I3
I58
I0
t(dtRp142
sg19
(lp143
g1
(g2
g3
(dp144
g22
Vhttp://www.opennet.ru/opennews/art.shtml?num=39208
p145
sg11
g24
sg25
g26
stRp146
asg28
VSpark \u043f\u043e\u043b\u0443\u0447\u0438\u043b \u0441\u0442\u0430\u0442\u0443\u0441 \u043f\u0435\u0440\u0432\u0438\u0447\u043d\u043e\u0433\u043e \u043f\u0440\u043e\u0435\u043a\u0442\u0430 Apache
p147
sS'summary_detail'
p148
g1
(g2
g3
(dp149
g9
S'http://www.opennet.ru/opennews/opennews_all_noadv.rss'
p150
sg11
S'text/html'
p151
sg13
Nsg14
V\u0424\u043e\u043d\u0434 Apache \u0443\u0442\u0432\u0435\u0440\u0434\u0438\u043b \u043f\u0440\u0438\u0434\u0430\u043d\u0438\u0435 \u0434\u0432\u0438\u0436\u043a\u0443 \u0434\u043b\u044f \u043e\u0431\u0440\u0430\u0431\u043e\u0442\u043a\u0438 \u0431\u043e\u043b\u044c\u0448\u0438\u0445 \u043e\u0431\u044a\u0451\u043c\u043e\u0432 \u0434\u0430\u043d\u043d\u044b\u0445 Spark \u0441\u0442\u0430\u0442\u0443\u0441\u0430 \u043f\u0435\u0440\u0432\u0438\u0447\u043d\u043e\u0433\u043e \u043f\u0440\u043e\u0435\u043a\u0442\u0430 Apache. \u041f\u0435\u0440\u0435\u0432\u043e\u0434 \u0432 \u0440\u0430\u0437\u0440\u044f\u0434 \u043f\u0435\u0440\u0432\u0438\u0447\u043d\u044b\u0445 \u043f\u0440\u043e\u0435\u043a\u0442\u043e\u0432 \u043f\u0440\u043e\u0438\u0437\u0432\u0435\u0434\u0451\u043d \u043f\u043e\u0441\u043b\u0435 \u043f\u0440\u043e\u0432\u0435\u0440\u043a\u0438 \u0432 \u0438\u043d\u043a\u0443\u0431\u0430\u0442\u043e\u0440\u0435 Apache \u0441\u043f\u043e\u0441\u043e\u0431\u043d\u043e\u0441\u0442\u0438 \u0441\u043b\u0435\u0434\u043e\u0432\u0430\u043d\u0438\u044f \u043f\u0440\u0438\u043d\u0446\u0438\u043f\u0430\u043c \u0440\u0430\u0437\u0440\u0430\u0431\u043e\u0442\u043a\u0438 \u0438 \u0443\u043f\u0440\u0430\u0432\u043b\u0435\u043d\u0438\u044f, \u043f\u0440\u0438\u043d\u044f\u0442\u044b\u043c \u0432 \u0441\u043e\u043e\u0431\u0449\u0435\u0441\u0442\u0432\u0435 Apache \u0438 \u043e\u0441\u043d\u043e\u0432\u0430\u043d\u043d\u044b\u043c \u043d\u0430 \u0438\u0434\u0435\u044f\u0445 \u043c\u0435\u0440\u0438\u0442\u043e\u043a\u0440\u0430\u0442\u0438\u0438. \u041e\u0442\u043d\u044b\u043d\u0435 Apache Spark \u043f\u0440\u0438\u0437\u043d\u0430\u043d \u0433\u043e\u0442\u043e\u0432\u044b\u043c \u0434\u043b\u044f \u0441\u0430\u043c\u043e\u0441\u0442\u043e\u044f\u0442\u0435\u043b\u044c\u043d\u043e\u0433\u043e \u0441\u0443\u0449\u0435\u0441\u0442\u0432\u043e\u0432\u0430\u043d\u0438\u044f, \u043d\u0435 \u0442\u0440\u0435\u0431\u0443\u044e\u0449\u0435\u0433\u043e \u0434\u043e\u043f\u043e\u043b\u043d\u0438\u0442\u0435\u043b\u044c\u043d\u043e\u0433\u043e \u043d\u0430\u0434\u0437\u043e\u0440\u0430.
p152
stRp153
sg60
g152
sg61
I00
sS'title_detail'
p154
g1
(g2
g3
(dp155
g9
S'http://www.opennet.ru/opennews/opennews_all_noadv.rss'
p156
sg11
S'text/plain'
p157
sg13
Nsg14
g147
stRp158
sg29
g145
sg67
(lp159
VOpenNews.opennet.ru: \u041e\u0431\u0449\u0430\u044f \u043b\u0435\u043d\u0442\u0430 \u043d\u043e\u0432\u043e\u0441\u0442\u0435\u0439
p160
aV*
aS'read'
p161
asg71
Vhttp://www.opennet.ru/opennews/art.shtml?num=39208
p162
stRp163
ag1
(g2
g3
(dp164
g37
VThu, 27 Feb 2014 16:00:28 +0600
p165
sg47
g38
((I2014
I2
I27
I10
I0
I28
I3
I58
I0
t(dtRp166
sg19
(lp167
g1
(g2
g3
(dp168
g22
Vhttp://www.opennet.ru/opennews/art.shtml?num=39207
p169
sg11
g24
sg25
g26
stRp170
asg28
V\u0412\u044b\u043f\u0443\u0441\u043a \u044f\u0437\u044b\u043a\u0430 \u043f\u0440\u043e\u0433\u0440\u0430\u043c\u043c\u0438\u0440\u043e\u0432\u0430\u043d\u0438\u044f Dart 1.2, \u0440\u0430\u0437\u0432\u0438\u0432\u0430\u0435\u043c\u043e\u0433\u043e Google \u0434\u043b\u044f \u0437\u0430\u043c\u0435\u043d\u044b JavaScript
p171
sS'summary_detail'
p172
g1
(g2
g3
(dp173
g9
S'http://www.opennet.ru/opennews/opennews_all_noadv.rss'
p174
sg11
S'text/html'
p175
sg13
Nsg14
V\u041a\u043e\u043c\u043f\u0430\u043d\u0438\u044f Google \u043f\u0440\u0435\u0434\u0441\u0442\u0430\u0432\u0438\u043b\u0430 \u043d\u043e\u0432\u044b\u0439 \u0432\u044b\u043f\u0443\u0441\u043a \u044f\u0437\u044b\u043a\u0430 \u043f\u0440\u043e\u0433\u0440\u0430\u043c\u043c\u0438\u0440\u043e\u0432\u0430\u043d\u0438\u044f Dart 1.2, \u043a\u043e\u0442\u043e\u0440\u044b\u0439 \u043f\u043e\u0437\u0438\u0446\u0438\u043e\u043d\u0438\u0440\u0443\u0435\u0442\u0441\u044f \u043a\u0430\u043a \u044f\u0437\u044b\u043a \u0441\u0442\u0440\u0443\u043a\u0442\u0443\u0440\u0438\u0440\u043e\u0432\u0430\u043d\u043d\u043e\u0433\u043e \u043f\u0440\u043e\u0433\u0440\u0430\u043c\u043c\u0438\u0440\u043e\u0432\u0430\u043d\u0438\u044f \u0434\u043b\u044f Web, \u043a\u043e\u0442\u043e\u0440\u044b\u0439 \u0432 \u0434\u043e\u043b\u0433\u043e\u0441\u0440\u043e\u0447\u043d\u043e\u0439 \u043f\u0435\u0440\u0441\u043f\u0435\u043a\u0442\u0438\u0432\u0435 \u043c\u043e\u0436\u0435\u0442 \u0441\u0442\u0430\u0442\u044c \u043f\u0440\u043e\u0433\u0440\u0435\u0441\u0441\u0438\u0432\u043d\u043e\u0439 \u0437\u0430\u043c\u0435\u043d\u043e\u0439 JavaScript.
p176
stRp177
sg60
g176
sg61
I00
sS'title_detail'
p178
g1
(g2
g3
(dp179
g9
S'http://www.opennet.ru/opennews/opennews_all_noadv.rss'
p180
sg11
S'text/plain'
p181
sg13
Nsg14
g171
stRp182
sg29
g169
sg67
(lp183
g160
aV*
ag161
asg71
Vhttp://www.opennet.ru/opennews/art.shtml?num=39207
p184
stRp185
ag1
(g2
g3
(dp186
g37
VThu, 27 Feb 2014 12:23:23 +0600
p187
sg47
g38
((I2014
I2
I27
I6
I23
I23
I3
I58
I0
t(dtRp188
sg19
(lp189
g1
(g2
g3
(dp190
g22
Vhttp://www.opennet.ru/opennews/art.shtml?num=39205
p191
sg11
g24
sg25
g26
stRp192
asg28
V\u0420\u0435\u043b\u0438\u0437 \u043a\u043e\u043c\u0430\u043d\u0434\u043d\u043e\u0433\u043e \u0438\u043d\u0442\u0435\u0440\u043f\u0440\u0435\u0442\u0430\u0442\u043e\u0440\u0430 Bash 4.3
p193
sS'summary_detail'
p194
g1
(g2
g3
(dp195
g9
S'http://www.opennet.ru/opennews/opennews_all_noadv.rss'
p196
sg11
S'text/html'
p197
sg13
Nsg14
V\u041f\u043e\u0441\u043b\u0435 \u0442\u0440\u0451\u0445 \u043b\u0435\u0442 \u0440\u0430\u0437\u0440\u0430\u0431\u043e\u0442\u043a\u0438 \u0432\u044b\u0448\u043b\u0430 \u043d\u043e\u0432\u0430\u044f \u0432\u0435\u0440\u0441\u0438\u044f \u043a\u043e\u043c\u0430\u043d\u0434\u043d\u043e\u0433\u043e \u0438\u043d\u0442\u0435\u0440\u043f\u0440\u0435\u0442\u0430\u0442\u043e\u0440\u0430 GNU Bash 4.3, \u0438\u0441\u043f\u043e\u043b\u044c\u0437\u0443\u0435\u043c\u043e\u0433\u043e \u043f\u043e \u0443\u043c\u043e\u043b\u0447\u0430\u043d\u0438\u044e \u0432 \u0431\u043e\u043b\u044c\u0448\u0438\u043d\u0441\u0442\u0432\u0435  \u0434\u0438\u0441\u0442\u0440\u0438\u0431\u0443\u0442\u0438\u0432\u043e\u0432 Linux.
p198
stRp199
sg60
g198
sg61
I00
sS'title_detail'
p200
g1
(g2
g3
(dp201
g9
S'http://www.opennet.ru/opennews/opennews_all_noadv.rss'
p202
sg11
S'text/plain'
p203
sg13
Nsg14
g193
stRp204
sg29
g191
sg67
(lp205
g160
aV*
ag161
asg71
Vhttp://www.opennet.ru/opennews/art.shtml?num=39205
p206
stRp207
ag1
(g2
g3
(dp208
g37
VThu, 27 Feb 2014 12:05:28 +0600
p209
sg47
g38
((I2014
I2
I27
I6
I5
I28
I3
I58
I0
t(dtRp210
sg19
(lp211
g1
(g2
g3
(dp212
g22
Vhttp://www.opennet.ru/opennews/art.shtml?num=39204
p213
sg11
g24
sg25
g26
stRp214
asg28
V\u041f\u0440\u043e\u0435\u043a\u0442 ReactOS \u043e\u0431\u044a\u044f\u0432\u0438\u043b \u043e \u043d\u0430\u0439\u043c\u0435 \u0440\u0430\u0437\u0440\u0430\u0431\u043e\u0442\u0447\u0438\u043a\u043e\u0432
p215
sS'summary_detail'
p216
g1
(g2
g3
(dp217
g9
S'http://www.opennet.ru/opennews/opennews_all_noadv.rss'
p218
sg11
S'text/html'
p219
sg13
Nsg14
V\u041f\u0440\u043e\u0435\u043a\u0442 ReactOS \u043e\u0431\u044a\u044f\u0432\u0438\u043b \u043e \u043f\u0440\u0435\u0434\u043e\u0441\u0442\u0430\u0432\u043b\u0435\u043d\u0438\u0438 \u0432\u0430\u043a\u0430\u043d\u0441\u0438\u0439  \u0434\u043b\u044f \u043e\u043f\u043b\u0430\u0447\u0438\u0432\u0430\u0435\u043c\u043e\u0439 \u0440\u0430\u0431\u043e\u0442\u044b \u043d\u0430\u0434 \u043f\u0440\u043e\u0435\u043a\u0442\u043e\u043c \u0432 \u0440\u0435\u0436\u0438\u043c\u0435 \u043f\u043e\u043b\u043d\u043e\u0433\u043e \u0440\u0430\u0431\u043e\u0447\u0435\u0433\u043e \u0434\u043d\u044f \u0438\u043b\u0438 \u043d\u0430 \u0443\u0441\u043b\u043e\u0432\u0438\u044f\u0445 \u0447\u0430\u0441\u0442\u0438\u0447\u043d\u043e\u0439 \u0437\u0430\u043d\u044f\u0442\u043e\u0441\u0442\u0438. \u0417\u0430\u044f\u0432\u043a\u0438 \u0441 \u0440\u0435\u0437\u044e\u043c\u0435 \u0438 \u043e\u043f\u0438\u0441\u0430\u043d\u0438\u0435\u043c \u0434\u043e\u0441\u0442\u0438\u0436\u0435\u043d\u0438\u0439 \u0441\u043b\u0435\u0434\u0443\u0435\u0442 \u043f\u0440\u0438\u0441\u044b\u043b\u0430\u0442\u044c \u043f\u043e \u0430\u0434\u0440\u0435\u0441\u0443 jobs@reactos.org, \u0440\u0430\u0431\u043e\u0442\u0430 \u043c\u043e\u0436\u0435\u0442 \u0431\u044b\u0442\u044c \u043f\u0440\u0435\u0434\u043e\u0441\u0442\u0430\u0432\u043b\u0435\u043d\u0430 \u043a\u0430\u043a \u043f\u0440\u043e\u0444\u0435\u0441\u0441\u0438\u043e\u043d\u0430\u043b\u044c\u043d\u044b\u043c \u0440\u0430\u0437\u0440\u0430\u0431\u043e\u0442\u0447\u0438\u043a\u0430\u043c, \u0442\u0430\u043a \u0438 \u0441\u0442\u0443\u0434\u0435\u043d\u0442\u0430\u043c. \u0412\u0441\u0435 \u043f\u0440\u0435\u0442\u0435\u043d\u0434\u0435\u043d\u0442\u044b \u0434\u043e\u043b\u0436\u043d\u044b \u043e\u0442\u0432\u0435\u0447\u0430\u0442\u044c \u043c\u0438\u043d\u0438\u043c\u0430\u043b\u044c\u043d\u044b\u043c \u0442\u0440\u0435\u0431\u043e\u0432\u0430\u043d\u0438\u044f\u043c \u043a \u043a\u0432\u0430\u043b\u0438\u0444\u0438\u043a\u0430\u0446\u0438\u0438, \u0442.\u0435. \u0440\u0430\u0437\u0431\u0438\u0440\u0430\u0442\u044c\u0441\u044f \u0432 \u043f\u0440\u0438\u043d\u0446\u0438\u043f\u0430\u0445 \u043f\u043e\u0441\u0442\u0440\u043e\u0435\u043d\u0438\u044f \u043e\u043f\u0435\u0440\u0430\u0446\u0438\u043e\u043d\u043d\u044b\u0445 \u0441\u0438\u0441\u0442\u0435\u043c \u0438 \u0443\u043c\u0435\u0442\u044c \u043f\u0440\u043e\u0433\u0440\u0430\u043c\u043c\u0438\u0440\u043e\u0432\u0430\u0442\u044c \u043d\u0430 \u044f\u0437\u044b\u043a\u0435 \u0421 \u0438\u043b\u0438 C++, \u0430 \u0442\u0430\u043a\u0436\u0435 \u043f\u0440\u043e\u0434\u0435\u043c\u043e\u043d\u0441\u0442\u0440\u0438\u0440\u043e\u0432\u0430\u0442\u044c \u0441\u0432\u043e\u044e \u0441\u043f\u043e\u0441\u043e\u0431\u043d\u043e\u0441\u0442\u044c \u0443\u0447\u0430\u0441\u0442\u0438\u044f \u0432 \u0440\u0430\u0437\u0440\u0430\u0431\u043e\u0442\u043a\u0435 ReactOS \u043f\u0443\u0442\u0451\u043c \u043f\u043e\u0434\u0433\u043e\u0442\u043e\u0432\u043a\u0438 \u0440\u0435\u0430\u043b\u044c\u043d\u044b\u0445 \u043f\u0430\u0442\u0447\u0435\u0439.
p220
stRp221
sg60
g220
sg61
I00
sS'title_detail'
p222
g1
(g2
g3
(dp223
g9
S'http://www.opennet.ru/opennews/opennews_all_noadv.rss'
p224
sg11
S'text/plain'
p225
sg13
Nsg14
g215
stRp226
sg29
g213
sg67
(lp227
g160
aV*
ag161
asg71
Vhttp://www.opennet.ru/opennews/art.shtml?num=39204
p228
stRp229
ag1
(g2
g3
(dp230
g37
VThu, 27 Feb 2014 08:04:23 +0600
p231
sg47
g38
((I2014
I2
I27
I2
I4
I23
I3
I58
I0
t(dtRp232
sg19
(lp233
g1
(g2
g3
(dp234
g22
Vhttp://www.opennet.ru/opennews/art.shtml?num=39203
p235
sg11
g24
sg25
g26
stRp236
asg28
VGitHub \u043f\u0440\u0435\u0434\u0441\u0442\u0430\u0432\u0438\u043b Atom, \u043e\u0441\u043d\u043e\u0432\u0430\u043d\u043d\u044b\u0439 \u043d\u0430 Chromium \u0440\u0435\u0434\u0430\u043a\u0442\u043e\u0440 \u043a\u043e\u0434\u0430
p237
sS'summary_detail'
p238
g1
(g2
g3
(dp239
g9
S'http://www.opennet.ru/opennews/opennews_all_noadv.rss'
p240
sg11
S'text/html'
p241
sg13
Nsg14
VGitHub \u0430\u043d\u043e\u043d\u0441\u0438\u0440\u043e\u0432\u0430\u043b  \u043f\u0440\u043e\u0435\u043a\u0442 Atom, \u0432 \u0440\u0430\u043c\u043a\u0430\u0445 \u043a\u043e\u0442\u043e\u0440\u043e\u0433\u043e \u0432\u0435\u0434\u0451\u0442\u0441\u044f \u0440\u0430\u0437\u0440\u0430\u0431\u043e\u0442\u043a\u0430 \u043d\u043e\u0432\u043e\u0439 \u0441\u0440\u0435\u0434\u044b  \u0440\u0435\u0434\u0430\u043a\u0442\u0438\u0440\u043e\u0432\u0430\u043d\u0438\u044f \u043a\u043e\u0434\u0430.  \u0412 \u043d\u0430\u0441\u0442\u043e\u044f\u0449\u0435\u0435 \u0432\u0440\u0435\u043c\u044f \u043e\u0442\u043a\u0440\u044b\u0442 \u043a\u043e\u0434 \u043e\u043a\u043e\u043b\u043e 80 \u0431\u0438\u0431\u043b\u0438\u043e\u0442\u0435\u043a \u0438 \u043f\u0430\u043a\u0435\u0442\u043e\u0432, \u0441\u0432\u044f\u0437\u0430\u043d\u043d\u044b\u0445 \u0441 \u043f\u0440\u043e\u0435\u043a\u0442\u043e\u043c. \u041e\u0431 \u043e\u0442\u043a\u0440\u044b\u0442\u0438\u0438 \u044f\u0434\u0440\u0430 \u0440\u0435\u0434\u0430\u043a\u0442\u043e\u0440\u0430 \u043f\u043e\u043a\u0430 \u043d\u0438\u0447\u0435\u0433\u043e \u043d\u0435 \u0441\u043e\u043e\u0431\u0449\u0430\u0435\u0442\u0441\u044f. \u041f\u0440\u043e\u0435\u043a\u0442 \u043f\u043e\u043a\u0430 \u043d\u0430\u0445\u043e\u0434\u0438\u0442\u0441\u044f \u043d\u0430 \u0441\u0442\u0430\u0434\u0438\u0438 \u043d\u0430\u0447\u0430\u043b\u044c\u043d\u043e\u0433\u043e \u0442\u0435\u0441\u0442\u0438\u0440\u043e\u0432\u0430\u043d\u0438\u044f, \u0443\u0447\u0430\u0441\u0442\u0438\u0435 \u0432 \u043a\u043e\u0442\u043e\u0440\u043e\u043c \u043c\u043e\u0436\u0435\u0442 \u0431\u044b\u0442\u044c \u043f\u0440\u0435\u0434\u043e\u0441\u0442\u0430\u0432\u043b\u0435\u043d\u043e \u043f\u043e\u0441\u043b\u0435 \u043e\u0442\u043f\u0440\u0430\u0432\u043a\u0438 \u0437\u0430\u044f\u0432\u043a\u0438 \u043d\u0430 \u0441\u0430\u0439\u0442\u0435.
p242
stRp243
sg60
g242
sg61
I00
sS'title_detail'
p244
g1
(g2
g3
(dp245
g9
S'http://www.opennet.ru/opennews/opennews_all_noadv.rss'
p246
sg11
S'text/plain'
p247
sg13
Nsg14
g237
stRp248
sg29
g235
sg67
(lp249
VOpenNews.opennet.ru: \u041e\u0431\u0449\u0430\u044f \u043b\u0435\u043d\u0442\u0430 \u043d\u043e\u0432\u043e\u0441\u0442\u0435\u0439
p250
aV*
aS'read'
p251
asg71
Vhttp://www.opennet.ru/opennews/art.shtml?num=39203
p252
stRp253
ag1
(g2
g3
(dp254
g37
VWed, 26 Feb 2014 22:37:35 +0600
p255
sg47
g38
((I2014
I2
I26
I16
I37
I35
I2
I57
I0
t(dtRp256
sg19
(lp257
g1
(g2
g3
(dp258
g22
Vhttp://www.opennet.ru/opennews/art.shtml?num=39201
p259
sg11
g24
sg25
g26
stRp260
asg28
V\u0410\u0442\u0430\u043a\u0430 \u043f\u043e \u043f\u0440\u0435\u0432\u0440\u0430\u0449\u0435\u043d\u0438\u044e IP-\u0442\u0435\u043b\u0435\u0444\u043e\u043d\u043e\u0432 Avaya \u0432 \u043f\u0440\u043e\u0441\u043b\u0443\u0448\u0438\u0432\u0430\u044e\u0449\u0438\u0435 \u0440\u0430\u0434\u0438\u043e\u043f\u0435\u0440\u0435\u0434\u0430\u0442\u0447\u0438\u043a\u0438
p261
sS'summary_detail'
p262
g1
(g2
g3
(dp263
g9
S'http://www.opennet.ru/opennews/opennews_all_noadv.rss'
p264
sg11
S'text/html'
p265
sg13
Nsg14
V\u0413\u0440\u0443\u043f\u043f\u0430 \u0438\u0441\u0441\u043b\u0435\u0434\u043e\u0432\u0430\u0442\u0435\u043b\u0435\u0439 \u0431\u0435\u0437\u043e\u043f\u0430\u0441\u043d\u043e\u0441\u0442\u0438 \u043f\u0440\u043e\u0434\u0435\u043c\u043e\u043d\u0441\u0442\u0440\u0438\u0440\u0443\u0435\u0442 \u043d\u0430 \u043a\u043e\u043d\u0444\u0435\u0440\u0435\u043d\u0446\u0438\u0438 RSA \u0442\u0435\u0445\u043d\u0438\u043a\u0443 \u0430\u0442\u0430\u043a\u0438, \u0432 \u0440\u0435\u0437\u0443\u043b\u044c\u0442\u0430\u0442\u0435 \u043a\u043e\u0442\u043e\u0440\u043e\u0439 \u043f\u0440\u0438 \u043f\u043e\u043c\u043e\u0449\u0438 \u0434\u0432\u0443\u0445 0-day \u0443\u044f\u0437\u0432\u0438\u043c\u043e\u0441\u0442\u0435\u0439 \u0443\u0434\u0430\u043b\u043e\u0441\u044c \u043f\u043e\u043b\u0443\u0447\u0438\u0442\u044c \u0443\u043f\u0440\u0430\u0432\u043b\u0435\u043d\u0438\u0435 \u043d\u0430\u0434  IP-\u0442\u0435\u043b\u0435\u0444\u043e\u043d\u0430\u043c\u0438 Avaya X 9608. \u0414\u0435\u0442\u0430\u043b\u0438 \u0443\u044f\u0437\u0432\u0438\u043c\u043e\u0441\u0442\u0435\u0439 \u0431\u0443\u0434\u0443\u0442 \u043e\u043f\u0443\u0431\u043b\u0438\u043a\u043e\u0432\u0430\u043d\u044b \u0432 \u043f\u044f\u0442\u043d\u0438\u0446\u0443, \u043d\u0430 \u0442\u043e\u0442 \u0436\u0435 \u0434\u0435\u043d\u044c \u043a\u043e\u043c\u043f\u0430\u043d\u0438\u0435\u0439 Avaya \u0437\u0430\u043f\u043b\u0430\u043d\u0438\u0440\u043e\u0432\u0430\u043d \u0432\u044b\u043f\u0443\u0441\u043a \u043e\u0431\u043d\u043e\u0432\u043b\u0435\u043d\u0438\u044f \u043f\u0440\u043e\u0448\u0438\u0432\u043a\u0438. \u0421\u043e\u043e\u0431\u0449\u0430\u0435\u0442\u0441\u044f, \u0447\u0442\u043e \u0442\u0435\u0445\u043d\u0438\u043a\u0430 \u044d\u043a\u0441\u043f\u043b\u0443\u0430\u0442\u0430\u0446\u0438\u0438 \u043e\u0447\u0435\u043d\u044c \u043f\u0440\u043e\u0441\u0442\u0430 \u0432 \u0438\u0441\u043f\u043e\u043b\u044c\u0437\u043e\u0432\u0430\u043d\u0438\u0438. \u0421 \u0443\u0447\u0451\u0442\u043e\u043c \u0442\u043e\u0433\u043e, \u0447\u0442\u043e Avaya, \u043d\u0430\u0440\u044f\u0434\u0443 \u0441 Cisco, \u044f\u0432\u043b\u044f\u0435\u0442\u0441\u044f \u043b\u0438\u0434\u0435\u0440\u043e\u043c \u0440\u044b\u043d\u043a\u0430, \u043f\u0440\u043e\u0431\u043b\u0435\u043c\u0435 \u043f\u043e\u0434\u0432\u0435\u0440\u0436\u0435\u043d\u044b \u043c\u0438\u043b\u043b\u0438\u043e\u043d\u044b \u0443\u0441\u0442\u0440\u043e\u0439\u0441\u0442\u0432.
p266
stRp267
sg60
g266
sg61
I00
sS'title_detail'
p268
g1
(g2
g3
(dp269
g9
S'http://www.opennet.ru/opennews/opennews_all_noadv.rss'
p270
sg11
S'text/plain'
p271
sg13
Nsg14
g261
stRp272
sg29
g259
sg67
(lp273
g250
aV*
ag251
asg71
Vhttp://www.opennet.ru/opennews/art.shtml?num=39201
p274
stRp275
ag1
(g2
g3
(dp276
g37
VWed, 26 Feb 2014 21:38:45 +0600
p277
sg47
g38
((I2014
I2
I26
I15
I38
I45
I2
I57
I0
t(dtRp278
sg19
(lp279
g1
(g2
g3
(dp280
g22
Vhttp://www.opennet.ru/opennews/art.shtml?num=39200
p281
sg11
g24
sg25
g26
stRp282
asg28
V\u0412\u044b\u043f\u0443\u0441\u043a \u0441\u0432\u043e\u0431\u043e\u0434\u043d\u043e\u0439 \u0442\u043e\u0440\u0433\u043e\u0432\u043e\u0439 \u0441\u0438\u0441\u0442\u0435\u043c\u044b Multimag 0.2
p283
sS'summary_detail'
p284
g1
(g2
g3
(dp285
g9
S'http://www.opennet.ru/opennews/opennews_all_noadv.rss'
p286
sg11
S'text/html'
p287
sg13
Nsg14
V\u041f\u043e\u0441\u043b\u0435 \u0434\u0432\u0443\u0445 \u043b\u0435\u0442 \u0440\u0430\u0437\u0440\u0430\u0431\u043e\u0442\u043a\u0438 \u043f\u0440\u0435\u0434\u0441\u0442\u0430\u0432\u043b\u0435\u043d \u0432\u044b\u043f\u0443\u0441\u043a MultiMag 0.2, \u0441\u0432\u043e\u0431\u043e\u0434\u043d\u043e\u0439 \u0441\u0438\u0441\u0442\u0435\u043c\u044b \u043a\u043e\u043c\u043f\u043b\u0435\u043a\u0441\u043d\u043e\u0433\u043e \u0443\u0447\u0451\u0442\u0430 \u0442\u043e\u0440\u0433\u043e\u0432\u043b\u0438 \u0441 \u0432\u0435\u0431-\u0438\u043d\u0442\u0435\u0440\u0444\u0435\u0439\u0441\u043e\u043c. \u041e\u0442\u043b\u0438\u0447\u0438\u0442\u0435\u043b\u044c\u043d\u043e\u0439 \u043e\u0441\u043e\u0431\u0435\u043d\u043d\u043e\u0441\u0442\u044c\u044e Multimag \u044f\u0432\u043b\u044f\u0435\u0442\u0441\u044f \u0435\u0434\u0438\u043d\u044b\u0439 \u0438\u043d\u0442\u0435\u0440\u0444\u0435\u0439\u0441 \u0434\u043b\u044f \u0438\u043d\u0442\u0435\u0440\u043d\u0435\u0442-\u0442\u043e\u0440\u0433\u043e\u0432\u043b\u0438 (\u0438\u043d\u0442\u0435\u0440\u043d\u0435\u0442-\u043c\u0430\u0433\u0430\u0437\u0438\u043d) \u0438 \u043f\u0440\u044f\u043c\u044b\u0445 \u043f\u0440\u043e\u0434\u0430\u0436 (\u0440\u043e\u0437\u043d\u0438\u0447\u043d\u044b\u0439 \u043c\u0430\u0433\u0430\u0437\u0438\u043d). \u0418\u0434\u0435\u044f, \u043b\u0435\u0436\u0430\u0449\u0430\u044f \u0432 \u043e\u0441\u043d\u043e\u0432\u0435 \u0441\u0438\u0441\u0442\u0435\u043c\u044b - \u043c\u0430\u043a\u0441\u0438\u043c\u0430\u043b\u044c\u043d\u0430\u044f \u043f\u0440\u043e\u0441\u0442\u043e\u0442\u0430 \u0434\u043b\u044f \u043e\u0442\u043a\u0440\u044b\u0442\u0438\u044f \u0438\u043d\u0442\u0435\u0440\u043d\u0435\u0442-\u043c\u0430\u0433\u0430\u0437\u0438\u043d\u0430 \u043f\u0440\u0438 \u0434\u0435\u0439\u0441\u0442\u0432\u0443\u044e\u0449\u0435\u043c \u043e\u0444\u0444\u043b\u0430\u0439\u043d-\u043c\u0430\u0433\u0430\u0437\u0438\u043d\u0435. \u041f\u043e\u0434\u0434\u0435\u0440\u0436\u0438\u0432\u0430\u044e\u0442\u0441\u044f \u0444\u0443\u043d\u043a\u0446\u0438\u0438 \u0441\u043a\u043b\u0430\u0434\u0441\u043a\u043e\u0433\u043e, \u0431\u0430\u043d\u043a\u043e\u0432\u0441\u043a\u043e\u0433\u043e \u0438 \u043a\u0430\u0441\u0441\u043e\u0432\u043e\u0433\u043e \u0443\u0447\u0451\u0442\u0430 \u0441 \u0432\u043e\u0437\u043c\u043e\u0436\u043d\u043e\u0441\u0442\u044c\u044e \u043f\u0435\u0447\u0430\u0442\u0438 \u0441\u043e\u043f\u0443\u0442\u0441\u0442\u0432\u0443\u044e\u0449\u0438\u0445 \u0434\u043e\u043a\u0443\u043c\u0435\u043d\u0442\u043e\u0432. \u0421\u0438\u0441\u0442\u0435\u043c\u0430 \u043d\u0430\u043f\u0438\u0441\u0430\u043d\u0430 \u043d\u0430 \u044f\u0437\u044b\u043a\u0435 PHP \u0438 \u0440\u0430\u0441\u043f\u0440\u043e\u0441\u0442\u0440\u0430\u043d\u044f\u0435\u0442\u0441\u044f \u043f\u043e\u0434 \u043b\u0438\u0446\u0435\u043d\u0437\u0438\u0435\u0439 AGPLv3.
p288
stRp289
sg60
g288
sg61
I00
sS'title_detail'
p290
g1
(g2
g3
(dp291
g9
S'http://www.opennet.ru/opennews/opennews_all_noadv.rss'
p292
sg11
S'text/plain'
p293
sg13
Nsg14
g283
stRp294
sg29
g281
sg67
(lp295
g250
aV*
ag251
asg71
Vhttp://www.opennet.ru/opennews/art.shtml?num=39200
p296
stRp297
ag1
(g2
g3
(dp298
g37
VWed, 26 Feb 2014 14:59:42 +0600
p299
sg47
g38
((I2014
I2
I26
I8
I59
I42
I2
I57
I0
t(dtRp300
sg19
(lp301
g1
(g2
g3
(dp302
g22
Vhttp://www.opennet.ru/opennews/art.shtml?num=39199
p303
sg11
g24
sg25
g26
stRp304
asg28
V\u041a\u043e\u0440\u0440\u0435\u043a\u0442\u0438\u0440\u0443\u044e\u0449\u0438\u0435 \u0432\u044b\u043f\u0443\u0441\u043a\u0438 \u0434\u0438\u0441\u0442\u0440\u0438\u0431\u0443\u0442\u0438\u0432\u043e\u0432 ALT Linux
p305
sS'summary_detail'
p306
g1
(g2
g3
(dp307
g9
S'http://www.opennet.ru/opennews/opennews_all_noadv.rss'
p308
sg11
S'text/html'
p309
sg13
Nsg14
V\u041a\u043e\u043c\u043f\u0430\u043d\u0438\u044f ALT Linux \u0441\u043e\u043e\u0431\u0449\u0438\u043b\u0430 \u043e \u0434\u043e\u0441\u0442\u0443\u043f\u043d\u043e\u0441\u0442\u0438 \u043a\u043e\u0440\u0440\u0435\u043a\u0442\u0438\u0440\u0443\u044e\u0449\u0438\u0445 \u0432\u044b\u043f\u0443\u0441\u043a\u043e\u0432 \u0432\u0435\u0440\u0441\u0438\u0438 7.0.3 \u0434\u0438\u0441\u0442\u0440\u0438\u0431\u0443\u0442\u0438\u0432\u043d\u044b\u0445 \u0440\u0435\u0448\u0435\u043d\u0438\u0439 \u0421\u0435\u0434\u044c\u043c\u043e\u0439 \u043f\u043b\u0430\u0442\u0444\u043e\u0440\u043c\u044b: Centaurus, Simply, KDesktop \u0438 \u043a\u043e\u043c\u043f\u043b\u0435\u043a\u0442\u0430 "\u0410\u043b\u044c\u0442 \u041b\u0438\u043d\u0443\u043a\u0441 \u0428\u043a\u043e\u043b\u044c\u043d\u044b\u0439" \u0434\u043b\u044f \u0430\u0440\u0445\u0438\u0442\u0435\u043a\u0442\u0443\u0440 i586 \u0438 x86_64. \u0412\u0441\u0435 \u0440\u0435\u0448\u0435\u043d\u0438\u044f \u043f\u043e\u0434\u0434\u0435\u0440\u0436\u0438\u0432\u0430\u044e\u0442 \u0438\u0441\u043f\u043e\u043b\u044c\u0437\u043e\u0432\u0430\u043d\u0438\u0435 \u043d\u0430 \u0441\u0438\u0441\u0442\u0435\u043c\u0430\u0445 \u0441 BIOS \u0438 UEFI, \u0430 \u0442\u0430\u043a\u0436\u0435 \u0440\u0430\u0431\u043e\u0442\u043e\u0441\u043f\u043e\u0441\u043e\u0431\u043d\u044b \u043f\u0440\u0438 \u043d\u0435\u043e\u0442\u043a\u043b\u044e\u0447\u0451\u043d\u043d\u043e\u043c UEFI Secure Boot.
p310
stRp311
sg60
g310
sg61
I00
sS'title_detail'
p312
g1
(g2
g3
(dp313
g9
S'http://www.opennet.ru/opennews/opennews_all_noadv.rss'
p314
sg11
S'text/plain'
p315
sg13
Nsg14
g305
stRp316
sg29
g303
sg67
(lp317
g250
aV*
ag251
asg71
Vhttp://www.opennet.ru/opennews/art.shtml?num=39199
p318
stRp319
ag1
(g2
g3
(dp320
g37
VWed, 26 Feb 2014 11:14:54 +0600
p321
sg47
g38
((I2014
I2
I26
I5
I14
I54
I2
I57
I0
t(dtRp322
sg19
(lp323
g1
(g2
g3
(dp324
g22
Vhttp://www.opennet.ru/opennews/art.shtml?num=39194
p325
sg11
g24
sg25
g26
stRp326
asg28
V\u041a\u043e\u043c\u043f\u0430\u043d\u0438\u044f Cisco \u043e\u0442\u043a\u0440\u044b\u043b\u0430 OpenAppID, \u0441\u0438\u0441\u0442\u0435\u043c\u0443 \u0432\u044b\u044f\u0432\u043b\u0435\u043d\u0438\u044f \u0442\u0440\u0430\u0444\u0438\u043a\u0430 \u043f\u0440\u0438\u043b\u043e\u0436\u0435\u043d\u0438\u0439
p327
sS'summary_detail'
p328
g1
(g2
g3
(dp329
g9
S'http://www.opennet.ru/opennews/opennews_all_noadv.rss'
p330
sg11
S'text/html'
p331
sg13
Nsg14
V\u041a\u043e\u043c\u043f\u0430\u043d\u0438\u044f Cisco \u043f\u0440\u0435\u0434\u0441\u0442\u0430\u0432\u0438\u043b\u0430 \u043d\u043e\u0432\u0443\u044e \u043e\u0442\u043a\u0440\u044b\u0442\u0443\u044e \u043f\u043b\u0430\u0442\u0444\u043e\u0440\u043c\u0443 \u0434\u043b\u044f \u0440\u0430\u0437\u0440\u0430\u0431\u043e\u0442\u043a\u0438 \u043c\u0435\u0436\u0441\u0435\u0442\u0435\u0432\u044b\u0445 \u044d\u043a\u0440\u0430\u043d\u043e\u0432 \u0443\u0440\u043e\u0432\u043d\u044f \u043f\u0440\u0438\u043b\u043e\u0436\u0435\u043d\u0438\u0439 - OpenAppID, \u043f\u043e\u0437\u0432\u043e\u043b\u044f\u044e\u0449\u0443\u044e \u043e\u043f\u0440\u0435\u0434\u0435\u043b\u044f\u0442\u044c \u0438\u0441\u043f\u043e\u043b\u044c\u0437\u043e\u0432\u0430\u043d\u0438\u0435 \u043f\u0440\u043e\u0442\u043e\u043a\u043e\u043b\u043e\u0432 \u0443\u0440\u043e\u0432\u043d\u044f \u043f\u0440\u0438\u043b\u043e\u0436\u0435\u043d\u0438\u0439 \u0438 \u0432\u044b\u044f\u0432\u043b\u044f\u0442\u044c \u0432 \u0442\u0440\u0430\u0444\u0438\u043a\u0435 \u0430\u043a\u0442\u0438\u0432\u043d\u043e\u0441\u0442\u044c \u043a\u043e\u043d\u043a\u0440\u0435\u0442\u043d\u044b\u0445 \u0441\u0435\u0440\u0432\u0435\u0440\u043d\u044b\u0445, \u043a\u043b\u0438\u0435\u043d\u0442\u0441\u043a\u0438\u0445 \u0438 web-\u043f\u0440\u0438\u043b\u043e\u0436\u0435\u043d\u0438\u0439. \u041e\u0442\u043a\u0440\u044b\u0442\u0438\u0435 OpenAppID \u043f\u043e\u0434\u0442\u0432\u0435\u0440\u0436\u0434\u0430\u0435\u0442 \u043e\u0431\u0435\u0449\u0430\u043d\u0438\u0435 Cisco \u043e \u043d\u0430\u043c\u0435\u0440\u0435\u043d\u0438\u0438 \u0443\u0441\u0438\u043b\u0438\u0442\u044c \u0443\u0447\u0430\u0441\u0442\u0438\u0435 \u0432 \u043e\u0442\u043a\u0440\u044b\u0442\u044b\u0445 \u043f\u0440\u043e\u0435\u043a\u0442\u0430\u0445 \u0438 \u0441\u043e\u0445\u0440\u0430\u043d\u0438\u0442\u044c \u043d\u0430\u043b\u0430\u0436\u0435\u043d\u043d\u044b\u0435 \u043a\u0430\u043d\u0430\u043b\u044b \u0432\u0437\u0430\u0438\u043c\u043e\u0434\u0435\u0439\u0441\u0442\u0432\u0438\u044f \u0441 \u0441\u043e\u043e\u0431\u0449\u0435\u0441\u0442\u0432\u043e\u043c \u043f\u043e\u0441\u043b\u0435 \u043f\u043e\u0433\u043b\u043e\u0449\u0435\u043d\u0438\u044f \u043a\u043e\u043c\u043f\u0430\u043d\u0438\u0438 Sourcefire  \u0438 \u043f\u043e\u043b\u0443\u0447\u0435\u043d\u0438\u044f \u043a\u043e\u043d\u0442\u0440\u043e\u043b\u044f \u043d\u0430\u0434 \u0441\u0432\u043e\u0431\u043e\u0434\u043d\u044b\u043c\u0438 \u043f\u0440\u043e\u0434\u0443\u043a\u0442\u0430\u043c\u0438 ClamAV \u0438 Snort.
p332
stRp333
sg60
g332
sg61
I00
sS'title_detail'
p334
g1
(g2
g3
(dp335
g9
S'http://www.opennet.ru/opennews/opennews_all_noadv.rss'
p336
sg11
S'text/plain'
p337
sg13
Nsg14
g327
stRp338
sg29
g325
sg67
(lp339
g250
aV*
ag251
asg71
Vhttp://www.opennet.ru/opennews/art.shtml?num=39194
p340
stRp341
ag1
(g2
g3
(dp342
g37
VWed, 26 Feb 2014 10:24:17 +0600
p343
sg47
g38
((I2014
I2
I26
I4
I24
I17
I2
I57
I0
t(dtRp344
sg19
(lp345
g1
(g2
g3
(dp346
g22
Vhttp://www.opennet.ru/opennews/art.shtml?num=39193
p347
sg11
g24
sg25
g26
stRp348
asg28
V\u041a\u043e\u0440\u0440\u0435\u043a\u0442\u0438\u0440\u0443\u044e\u0449\u0438\u0439 \u0432\u044b\u043f\u0443\u0441\u043a \u0441\u0438\u0441\u0442\u0435\u043c\u044b \u0432\u0438\u0440\u0442\u0443\u0430\u043b\u0438\u0437\u0430\u0446\u0438\u0438 VirtualBox 4.3.8
p349
sS'summary_detail'
p350
g1
(g2
g3
(dp351
g9
S'http://www.opennet.ru/opennews/opennews_all_noadv.rss'
p352
sg11
S'text/html'
p353
sg13
Nsg14
V\u041a\u043e\u043c\u043f\u0430\u043d\u0438\u044f Oracle \u0432\u044b\u043f\u0443\u0441\u0442\u0438\u043b\u0430 \u043a\u043e\u0440\u0440\u0435\u043a\u0442\u0438\u0440\u0443\u044e\u0449\u0438\u0439 \u0440\u0435\u043b\u0438\u0437 \u0441\u0438\u0441\u0442\u0435\u043c\u044b \u0432\u0438\u0440\u0442\u0443\u0430\u043b\u0438\u0437\u0430\u0446\u0438\u0438 VirtualBox 4.3.8, \u0432 \u043a\u043e\u0442\u043e\u0440\u043e\u043c \u043e\u0442\u043c\u0435\u0447\u0435\u043d\u043e \u043e\u043a\u043e\u043b\u043e 50 \u0438\u0441\u043f\u0440\u0430\u0432\u043b\u0435\u043d\u0438\u0439, \u043d\u0430\u043f\u0440\u0430\u0432\u043b\u0435\u043d\u043d\u044b\u0445 \u043d\u0430 \u0443\u0432\u0435\u043b\u0438\u0447\u0435\u043d\u0438\u0435 \u0441\u0442\u0430\u0431\u0438\u043b\u044c\u043d\u043e\u0441\u0442\u0438 \u0438 \u0443\u0441\u0442\u0440\u0430\u043d\u0435\u043d\u0438\u0435 \u0440\u0435\u0433\u0440\u0435\u0441\u0441\u0438\u0432\u043d\u044b\u0445 \u0438\u0437\u043c\u0435\u043d\u0435\u043d\u0438\u0439.
p354
stRp355
sg60
g354
sg61
I00
sS'title_detail'
p356
g1
(g2
g3
(dp357
g9
S'http://www.opennet.ru/opennews/opennews_all_noadv.rss'
p358
sg11
S'text/plain'
p359
sg13
Nsg14
g349
stRp360
sg29
g347
sg67
(lp361
g250
aV*
ag251
asg71
Vhttp://www.opennet.ru/opennews/art.shtml?num=39193
p362
stRp363
ag1
(g2
g3
(dp364
g37
VWed, 26 Feb 2014 10:01:50 +0600
p365
sg47
g38
((I2014
I2
I26
I4
I1
I50
I2
I57
I0
t(dtRp366
sg19
(lp367
g1
(g2
g3
(dp368
g22
Vhttp://www.opennet.ru/opennews/art.shtml?num=39192
p369
sg11
g24
sg25
g26
stRp370
asg28
V\u041a\u043e\u043c\u043f\u0430\u043d\u0438\u044f Valve \u0432\u044b\u043f\u0443\u0441\u0442\u0438\u043b\u0430 \u0438\u0433\u0440\u0443 Portal 2 \u0434\u043b\u044f Linux
p371
sS'summary_detail'
p372
g1
(g2
g3
(dp373
g9
S'http://www.opennet.ru/opennews/opennews_all_noadv.rss'
p374
sg11
S'text/html'
p375
sg13
Nsg14
V\u041a\u043e\u043c\u043f\u0430\u043d\u0438\u044f Valve \u043f\u0440\u0435\u0434\u0441\u0442\u0430\u0432\u0438\u043b\u0430 Linux-\u0432\u0435\u0440\u0441\u0438\u044e \u0438\u0433\u0440\u044b Portal 2, \u0432\u044b\u0448\u0435\u0434\u0448\u0435\u0439 \u0432 2011 \u0433\u043e\u0434\u0443 \u0434\u043b\u044f \u043f\u043b\u0430\u0442\u0444\u043e\u0440\u043c Windows, OS X, PlayStation 3 \u0438 Xbox 360. \u0418\u0433\u0440\u0430 \u0434\u043e\u0441\u0442\u0443\u043f\u043d\u0430 \u0432 \u0444\u043e\u0440\u043c\u0435 \u0431\u0435\u0442\u0430-\u0432\u044b\u043f\u0443\u0441\u043a\u0430 \u0447\u0435\u0440\u0435\u0437 \u043a\u043b\u0438\u0435\u043d\u0442 Steam \u0434\u043b\u044f \u043f\u043b\u0430\u0442\u0444\u043e\u0440\u043c\u044b Linux (\u0434\u043b\u044f \u0443\u0441\u0442\u0430\u043d\u043e\u0432\u043a\u0438 \u0438\u0433\u0440\u044b \u0442\u0440\u0435\u0431\u0443\u0435\u0442\u0441\u044f \u0430\u043a\u0442\u0438\u0432\u0438\u0440\u043e\u0432\u0430\u0442\u044c \u0432 \u043d\u0430\u0441\u0442\u0440\u043e\u0439\u043a\u0430\u0445 \u0431\u0435\u0442\u0430-\u0440\u0435\u0436\u0438\u043c).
p376
stRp377
sg60
g376
sg61
I00
sS'title_detail'
p378
g1
(g2
g3
(dp379
g9
S'http://www.opennet.ru/opennews/opennews_all_noadv.rss'
p380
sg11
S'text/plain'
p381
sg13
Nsg14
g371
stRp382
sg29
g369
sg67
(lp383
g250
aV*
ag251
asg71
Vhttp://www.opennet.ru/opennews/art.shtml?num=39192
p384
stRp385
ag1
(g2
g3
(dp386
g37
VWed, 26 Feb 2014 09:03:33 +0600
p387
sg47
g38
((I2014
I2
I26
I3
I3
I33
I2
I57
I0
t(dtRp388
sg19
(lp389
g1
(g2
g3
(dp390
g22
Vhttp://www.opennet.ru/opennews/art.shtml?num=39191
p391
sg11
g24
sg25
g26
stRp392
asg28
V\u041d\u043e\u0432\u044b\u0435 \u043e\u043f\u0442\u0438\u043c\u0438\u0437\u0430\u0446\u0438\u0438 \u043e\u0442\u043a\u0440\u044b\u0442\u043e\u0433\u043e \u0434\u0440\u0430\u0439\u0432\u0435\u0440\u0430 Radeon. \u0412\u044b\u043f\u0443\u0441\u043a AMD Catalyst 14.2-beta
p393
sS'summary_detail'
p394
g1
(g2
g3
(dp395
g9
S'http://www.opennet.ru/opennews/opennews_all_noadv.rss'
p396
sg11
S'text/html'
p397
sg13
Nsg14
VMarek Ol&#353;&#225;k, \u0441\u043e\u0442\u0440\u0443\u0434\u043d\u0438\u043a \u043a\u043e\u043c\u043f\u0430\u043d\u0438\u0438 AMD, \u043f\u0440\u0435\u0434\u0441\u0442\u0430\u0432\u0438\u043b \u043e\u0447\u0435\u0440\u0435\u0434\u043d\u0443\u044e \u043f\u043e\u0440\u0446\u0438\u044e \u043f\u0430\u0442\u0447\u0435\u0439 \u0434\u043b\u044f \u043e\u0442\u043a\u0440\u044b\u0442\u044b\u0445 \u0433\u0440\u0430\u0444\u0438\u0447\u0435\u0441\u043a\u0438\u0445 \u0434\u0440\u0430\u0439\u0432\u0435\u0440\u043e\u0432 Radeon, \u043e\u043f\u0442\u0438\u043c\u0438\u0437\u0438\u0440\u0443\u044e\u0449\u0438\u0445 \u043e\u043f\u0435\u0440\u0430\u0446\u0438\u0438 \u0443\u043f\u0440\u0430\u0432\u043b\u0435\u043d\u0438\u044f \u0432\u0438\u0434\u0435\u043e\u043f\u0430\u043c\u044f\u0442\u044c\u044e. \u041f\u0430\u0442\u0447\u0438 \u0441\u0443\u0449\u0435\u0441\u0442\u0432\u0435\u043d\u043d\u043e \u0443\u0432\u0435\u043b\u0438\u0447\u0438\u0432\u0430\u044e\u0442 \u043f\u0440\u043e\u0438\u0437\u0432\u043e\u0434\u0438\u0442\u0435\u043b\u044c\u043d\u043e\u0441\u0442\u044c \u0432 \u0441\u0438\u0442\u0443\u0430\u0446\u0438\u044f\u0445, \u043a\u043e\u0433\u0434\u0430 \u0434\u043b\u044f \u0432\u0441\u0435\u0445 \u0437\u0430\u043f\u0440\u043e\u0448\u0435\u043d\u043d\u044b\u0445 \u0431\u0443\u0444\u0435\u0440\u043e\u0432 \u043d\u0435 \u0445\u0432\u0430\u0442\u0430\u0435\u0442 \u0432\u0438\u0434\u0435\u043e\u043f\u0430\u043c\u044f\u0442\u0438.
p398
stRp399
sg60
g398
sg61
I00
sS'title_detail'
p400
g1
(g2
g3
(dp401
g9
S'http://www.opennet.ru/opennews/opennews_all_noadv.rss'
p402
sg11
S'text/plain'
p403
sg13
Nsg14
g393
stRp404
sg29
g391
sg67
(lp405
g250
aV*
ag251
asg71
Vhttp://www.opennet.ru/opennews/art.shtml?num=39191
p406
stRp407
ag1
(g2
g3
(dp408
g37
VTue, 25 Feb 2014 23:01:23 +0600
p409
sg47
g38
((I2014
I2
I25
I17
I1
I23
I1
I56
I0
t(dtRp410
sg19
(lp411
g1
(g2
g3
(dp412
g22
Vhttp://www.opennet.ru/opennews/art.shtml?num=39190
p413
sg11
g24
sg25
g26
stRp414
asg28
VFacebook \u043e\u0442\u043a\u0440\u044b\u043b \u043a\u043e\u0434 flint, \u0441\u0438\u0441\u0442\u0435\u043c\u044b \u0434\u043b\u044f \u043f\u0440\u043e\u0432\u0435\u0440\u043a\u0438 \u043a\u043e\u0434\u0430 \u043d\u0430 \u044f\u0437\u044b\u043a\u0435 C++
p415
sS'summary_detail'
p416
g1
(g2
g3
(dp417
g9
S'http://www.opennet.ru/opennews/opennews_all_noadv.rss'
p418
sg11
S'text/html'
p419
sg13
Nsg14
VFacebook  \u043e\u043f\u0443\u0431\u043b\u0438\u043a\u043e\u0432\u0430\u043b \u0438\u0441\u0445\u043e\u0434\u043d\u044b\u0435 \u0442\u0435\u043a\u0441\u0442\u044b \u0443\u0442\u0438\u043b\u0438\u0442\u044b flint, \u043f\u0440\u0435\u0434\u043d\u0430\u0437\u043d\u0430\u0447\u0435\u043d\u043d\u043e\u0439 \u0434\u043b\u044f \u0432\u044b\u044f\u0432\u043b\u0435\u043d\u0438\u044f \u0442\u0438\u043f\u043e\u0432\u044b\u0445 \u043e\u0448\u0438\u0431\u043e\u043a \u0438 \u043f\u0440\u043e\u0431\u043b\u0435\u043c\u043d\u044b\u0445 \u043a\u043e\u043d\u0441\u0442\u0440\u0443\u043a\u0446\u0438\u0439 \u0432 \u043a\u043e\u0434\u0435 \u043d\u0430 \u044f\u0437\u044b\u043a\u0435 \u0421++. \u041f\u0440\u0435\u0434\u0441\u0442\u0430\u0432\u043b\u0435\u043d\u044b \u0434\u0432\u0430 \u0432\u0430\u0440\u0438\u0430\u043d\u0442\u0430  flint: \u043e\u0441\u043d\u043e\u0432\u043d\u043e\u0439, \u043d\u0430\u043f\u0438\u0441\u0430\u043d\u043d\u044b\u0439 \u043d\u0430 \u044f\u0437\u044b\u043a\u0435 D, \u0438 \u0443\u0441\u0442\u0430\u0440\u0435\u0432\u0448\u0430\u044f \u0440\u0435\u0430\u043b\u0438\u0437\u0430\u0446\u0438\u044f \u043d\u0430 \u044f\u0437\u044b\u043a\u0435 C++. \u041a\u043e\u0434 \u043e\u0442\u043a\u0440\u044b\u0442 \u043f\u043e\u0434 \u0441\u0432\u043e\u0431\u043e\u0434\u043d\u043e\u0439 \u043b\u0438\u0446\u0435\u043d\u0437\u0438\u0435\u0439 Boost Software License.
p420
stRp421
sg60
g420
sg61
I00
sS'title_detail'
p422
g1
(g2
g3
(dp423
g9
S'http://www.opennet.ru/opennews/opennews_all_noadv.rss'
p424
sg11
S'text/plain'
p425
sg13
Nsg14
g415
stRp426
sg29
g413
sg67
(lp427
g250
aV*
ag251
asg71
Vhttp://www.opennet.ru/opennews/art.shtml?num=39190
p428
stRp429
ag1
(g2
g3
(dp430
g37
VTue, 25 Feb 2014 22:00:22 +0600
p431
sg47
g38
((I2014
I2
I25
I16
I0
I22
I1
I56
I0
t(dtRp432
sg19
(lp433
g1
(g2
g3
(dp434
g22
Vhttp://www.opennet.ru/opennews/art.shtml?num=39189
p435
sg11
g24
sg25
g26
stRp436
asg28
V\u0412\u044b\u0448\u043b\u0430 \u0431\u0435\u0442\u0430-\u0432\u0435\u0440\u0441\u0438\u044f \u0434\u0438\u0441\u0442\u0440\u0438\u0431\u0443\u0442\u0438\u0432\u0430 SUSE Linux Enterprise 12
p437
sS'summary_detail'
p438
g1
(g2
g3
(dp439
g9
S'http://www.opennet.ru/opennews/opennews_all_noadv.rss'
p440
sg11
S'text/html'
p441
sg13
Nsg14
V\u041a\u043e\u043c\u043f\u0430\u043d\u0438\u044f SUSE \u0430\u043d\u043e\u043d\u0441\u0438\u0440\u043e\u0432\u0430\u043b\u0430 \u0434\u043e\u0441\u0442\u0443\u043f\u043d\u043e\u0441\u0442\u044c \u0431\u0435\u0442\u0430-\u0432\u0435\u0440\u0441\u0438\u0438 \u043f\u0440\u043e\u043c\u044b\u0448\u043b\u0435\u043d\u043d\u043e\u0433\u043e \u0434\u0438\u0441\u0442\u0440\u0438\u0431\u0443\u0442\u0438\u0432\u0430 SUSE Linux Enterprise 12. \u0424\u0438\u043d\u0430\u043b\u044c\u043d\u044b\u0435 \u0432\u044b\u043f\u0443\u0441\u043a\u0438 \u043f\u0440\u043e\u0434\u0443\u043a\u0442\u043e\u0432 \u043d\u0430 \u0431\u0430\u0437\u0435 \u043f\u043b\u0430\u0442\u0444\u043e\u0440\u043c\u044b SUSE Linux Enterprise, \u0442\u0430\u043a\u0438\u0435 \u043a\u0430\u043a SUSE Linux Enterprise Server 12, SUSE Linux Enterprise High Availability Extension 12 \u0438 SUSE Linux Enterprise Desktop 12, \u043f\u043b\u0430\u043d\u0438\u0440\u0443\u0435\u0442\u0441\u044f \u0432\u044b\u043f\u0443\u0441\u0442\u0438\u0442\u044c \u0432 \u0442\u0435\u0447\u0435\u043d\u0438\u0435 2014 \u0433\u043e\u0434\u0430.  \u0414\u043b\u044f \u0443\u0447\u0430\u0441\u0442\u0438\u044f \u0432 \u043f\u0440\u043e\u0433\u0440\u0430\u043c\u043c\u0435 \u0431\u0435\u0442\u0430-\u0442\u0435\u0441\u0442\u0438\u0440\u043e\u0432\u0430\u043d\u0438\u044f \u0441\u043b\u0435\u0434\u0443\u0435\u0442 \u043e\u0442\u043f\u0440\u0430\u0432\u0438\u0442\u044c \u0437\u0430\u043f\u0440\u043e\u0441 \u043f\u043e \u0430\u0434\u0440\u0435\u0441\u0443 SLE12beta@suse.com.
p442
stRp443
sg60
g442
sg61
I00
sS'title_detail'
p444
g1
(g2
g3
(dp445
g9
S'http://www.opennet.ru/opennews/opennews_all_noadv.rss'
p446
sg11
S'text/plain'
p447
sg13
Nsg14
g437
stRp448
sg29
g435
sg67
(lp449
g250
aV*
ag251
asg71
Vhttp://www.opennet.ru/opennews/art.shtml?num=39189
p450
stRp451
ag1
(g2
g3
(dp452
g37
VTue, 25 Feb 2014 21:02:04 +0600
p453
sg47
g38
((I2014
I2
I25
I15
I2
I4
I1
I56
I0
t(dtRp454
sg19
(lp455
g1
(g2
g3
(dp456
g22
Vhttp://www.opennet.ru/opennews/art.shtml?num=39188
p457
sg11
g24
sg25
g26
stRp458
asg28
VFord \u043f\u0435\u0440\u0435\u0432\u043e\u0434\u0438\u0442 \u0430\u0432\u0442\u043e\u043c\u043e\u0431\u0438\u043b\u044c\u043d\u0443\u044e \u0438\u043d\u0444\u043e\u0440\u043c\u0430\u0446\u0438\u043e\u043d\u043d\u043e-\u0440\u0430\u0437\u0432\u043b\u0435\u043a\u0430\u0442\u0435\u043b\u044c\u043d\u0443\u044e \u0441\u0438\u0441\u0442\u0435\u043c\u0443 \u0441 \u043f\u043b\u0430\u0442\u0444\u043e\u0440\u043c\u044b Microsoft \u043d\u0430 QNX
p459
sS'summary_detail'
p460
g1
(g2
g3
(dp461
g9
S'http://www.opennet.ru/opennews/opennews_all_noadv.rss'
p462
sg11
S'text/html'
p463
sg13
Nsg14
V\u0410\u0432\u0442\u043e\u043c\u043e\u0431\u0438\u043b\u0435\u0441\u0442\u0440\u043e\u0438\u0442\u0435\u043b\u044c\u043d\u0430\u044f \u043a\u043e\u043c\u043f\u0430\u043d\u0438\u044f Ford \u043e\u0442\u043a\u0430\u0437\u044b\u0432\u0430\u0435\u0442\u0441\u044f \u043e\u0442 \u0438\u0441\u043f\u043e\u043b\u044c\u0437\u043e\u0432\u0430\u043d\u0438\u044f \u043f\u043b\u0430\u0442\u0444\u043e\u0440\u043c\u044b Microsoft \u0434\u043b\u044f \u043f\u043e\u0441\u0442\u0440\u043e\u0435\u043d\u0438\u044f \u0430\u0432\u0442\u043e\u043c\u043e\u0431\u0438\u043b\u044c\u043d\u043e\u0439 \u0438\u043d\u0444\u043e\u0440\u043c\u0430\u0446\u0438\u043e\u043d\u043d\u043e-\u0440\u0430\u0437\u0432\u043b\u0435\u043a\u0430\u0442\u0435\u043b\u044c\u043d\u043e\u0439 \u0441\u0438\u0441\u0442\u0435\u043c\u044b Sync  \u0432 \u043f\u043e\u043b\u044c\u0437\u0443 \u0440\u0435\u0448\u0435\u043d\u0438\u044f \u043d\u0430 \u0431\u0430\u0437\u0435 QNX. \u0412 \u043a\u0430\u0447\u0435\u0441\u0442\u0432\u0435 \u043f\u0440\u0438\u0447\u0438\u043d \u043f\u0435\u0440\u0435\u0445\u043e\u0434\u0430 \u043d\u0430 QNX \u043d\u0430\u0437\u044b\u0432\u0430\u0435\u0442\u0441\u044f \u0432\u044b\u0441\u043e\u043a\u0430\u044f \u0433\u0438\u0431\u043a\u043e\u0441\u0442\u044c \u0440\u0435\u0448\u0435\u043d\u0438\u044f, \u0431\u043e\u043b\u0435\u0435 \u0432\u044b\u0441\u043e\u043a\u0430\u044f \u043f\u0440\u043e\u0438\u0437\u0432\u043e\u0434\u0438\u0442\u0435\u043b\u044c\u043d\u043e\u0441\u0442\u044c  \u0438 \u043c\u0435\u043d\u044c\u0448\u0430\u044f \u0441\u0442\u043e\u0438\u043c\u043e\u0441\u0442\u044c \u043b\u0438\u0446\u0435\u043d\u0437\u0438\u0438. \u0410\u0432\u0442\u043e\u043c\u043e\u0431\u0438\u043b\u044c\u043d\u0430\u044f \u043f\u043b\u0430\u0442\u0444\u043e\u0440\u043c\u0430 QNX CAR \u043f\u043e\u0437\u0432\u043e\u043b\u0438\u0442 \u043f\u0440\u043e\u0432\u0435\u0441\u0442\u0438 \u0431\u043e\u043b\u0435\u0435 \u0433\u043b\u0443\u0431\u043e\u043a\u0443\u044e \u043a\u0430\u0441\u0442\u043e\u043c\u0438\u0437\u0430\u0446\u0438\u044e \u0438 \u043e\u0431\u0435\u0441\u043f\u0435\u0447\u0438\u0442\u044c \u043a\u0430\u0447\u0435\u0441\u0442\u0432\u0435\u043d\u043d\u0443\u044e \u043f\u043e\u0434\u0434\u0435\u0440\u0436\u043a\u0443 \u0441\u0435\u043d\u0441\u043e\u0440\u043d\u043e\u0433\u043e \u044d\u043a\u0440\u0430\u043d\u0430, \u0430 \u0442\u0430\u043a\u0436\u0435 \u0434\u0430\u0441\u0442 \u0432\u043e\u0437\u043c\u043e\u0436\u043d\u043e\u0441\u0442\u044c \u0440\u0430\u0437\u0440\u0430\u0431\u043e\u0442\u043a\u0438 \u043f\u0440\u0438\u043b\u043e\u0436\u0435\u043d\u0438\u0439 \u0441 \u0438\u0441\u043f\u043e\u043b\u044c\u0437\u043e\u0432\u0430\u043d\u0438\u0435\u043c \u0442\u0435\u0445\u043d\u043e\u043b\u043e\u0433\u0438\u0439 HTML5 \u0438 \u043d\u0430 \u0431\u0430\u0437\u0435 Qt.
p464
stRp465
sg60
g464
sg61
I00
sS'title_detail'
p466
g1
(g2
g3
(dp467
g9
S'http://www.opennet.ru/opennews/opennews_all_noadv.rss'
p468
sg11
S'text/plain'
p469
sg13
Nsg14
g459
stRp470
sg29
g457
sg67
(lp471
g250
aV*
ag251
asg71
Vhttp://www.opennet.ru/opennews/art.shtml?num=39188
p472
stRp473
ag1
(g2
g3
(dp474
g37
VTue, 25 Feb 2014 20:37:54 +0600
p475
sg47
g38
((I2014
I2
I25
I14
I37
I54
I1
I56
I0
t(dtRp476
sg19
(lp477
g1
(g2
g3
(dp478
g22
Vhttp://www.opennet.ru/opennews/art.shtml?num=39187
p479
sg11
g24
sg25
g26
stRp480
asg28
V\u0421\u0444\u043e\u0440\u043c\u0438\u0440\u043e\u0432\u0430\u043d \u0441\u043f\u0438\u0441\u043e\u043a \u043e\u0440\u0433\u0430\u043d\u0438\u0437\u0430\u0446\u0438\u0439, \u0443\u0447\u0430\u0441\u0442\u0432\u0443\u044e\u0449\u0438\u0445 \u0432 Summer of Code 2014
p481
sS'summary_detail'
p482
g1
(g2
g3
(dp483
g9
S'http://www.opennet.ru/opennews/opennews_all_noadv.rss'
p484
sg11
S'text/html'
p485
sg13
Nsg14
V\u041a\u043e\u043c\u043f\u0430\u043d\u0438\u044f Google \u0441\u043e\u043e\u0431\u0449\u0438\u043b\u0430 \u043e \u0432\u044b\u0431\u043e\u0440\u0435 \u043f\u0440\u043e\u0435\u043a\u0442\u043e\u0432 \u0434\u043b\u044f \u0443\u0447\u0430\u0441\u0442\u0438\u044f \u0432 \u0438\u043d\u0438\u0446\u0438\u0430\u0442\u0438\u0432\u0435 Google Summer of Code 2014. \u0418\u0437 370 \u043f\u043e\u0434\u0430\u0432\u0448\u0438\u0445 \u0437\u0430\u044f\u0432\u043a\u0438 \u043e\u0442\u043a\u0440\u044b\u0442\u044b\u0445 \u043f\u0440\u043e\u0435\u043a\u0442\u043e\u0432 \u0434\u043b\u044f \u0443\u0447\u0430\u0441\u0442\u0438\u044f \u0432 \u043f\u0440\u043e\u0433\u0440\u0430\u043c\u043c\u0435 \u043e\u0434\u043e\u0431\u0440\u0435\u043d\u043e 190, \u0432 \u0442\u043e\u043c \u0447\u0438\u0441\u043b\u0435 45 \u043f\u0440\u043e\u0435\u043a\u0442\u043e\u0432 \u043d\u0435 \u043f\u0440\u0438\u043d\u0438\u043c\u0430\u0432\u0448\u0438\u0445 \u0443\u0447\u0430\u0441\u0442\u0438\u0435 \u0432 GSoC \u0432 \u043f\u0440\u0435\u0434\u044b\u0434\u0443\u0449\u0438\u0435 \u0433\u043e\u0434\u044b. \u0414\u043e 10 \u043c\u0430\u0440\u0442\u0430 \u0443 \u0441\u0442\u0443\u0434\u0435\u043d\u0442\u043e\u0432 \u0435\u0441\u0442\u044c \u0432\u0440\u0435\u043c\u044f \u0432\u044b\u0431\u0440\u0430\u0442\u044c \u0441\u0435\u0431\u0435 \u0437\u0430\u0434\u0430\u043d\u0438\u0435 \u043f\u043e \u0434\u0443\u0448\u0435 \u0438 \u043e\u0431\u0441\u0443\u0434\u0438\u0442\u044c \u0432\u043e\u0437\u043c\u043e\u0436\u043d\u043e\u0441\u0442\u044c \u0435\u0433\u043e \u0432\u044b\u043f\u043e\u043b\u043d\u0435\u043d\u0438\u044f \u0441 \u043f\u0440\u0435\u0434\u0441\u0442\u0430\u0432\u0438\u0442\u0435\u043b\u044f\u043c\u0438 \u043f\u043e\u0434\u0430\u0432\u0448\u0438\u0445 \u0437\u0430\u044f\u0432\u043a\u0443 \u043f\u0440\u043e\u0435\u043a\u0442\u043e\u0432. \u0417\u0430\u044f\u0432\u043a\u0438 \u043e\u0442 \u0441\u0442\u0443\u0434\u0435\u043d\u0442\u043e\u0432 \u0431\u0443\u0434\u0443\u0442 \u043f\u0440\u0438\u043d\u0438\u043c\u0430\u0442\u044c\u0441\u044f \u0434\u043e 3 \u043c\u0430\u044f.
p486
stRp487
sg60
g486
sg61
I00
sS'title_detail'
p488
g1
(g2
g3
(dp489
g9
S'http://www.opennet.ru/opennews/opennews_all_noadv.rss'
p490
sg11
S'text/plain'
p491
sg13
Nsg14
g481
stRp492
sg29
g479
sg67
(lp493
g250
aV*
ag251
asg71
Vhttp://www.opennet.ru/opennews/art.shtml?num=39187
p494
stRp495
ag1
(g2
g3
(dp496
g37
VTue, 25 Feb 2014 16:26:40 +0600
p497
sg47
g38
((I2014
I2
I25
I10
I26
I40
I1
I56
I0
t(dtRp498
sg19
(lp499
g1
(g2
g3
(dp500
g22
Vhttp://www.opennet.ru/opennews/art.shtml?num=39185
p501
sg11
g24
sg25
g26
stRp502
asg28
V\u0412\u0442\u043e\u0440\u043e\u0439 \u0432\u044b\u043f\u0443\u0441\u043a Qt Enterprise Embedded, \u043f\u043b\u0430\u0442\u0444\u043e\u0440\u043c\u044b \u0434\u043b\u044f \u0441\u043e\u0437\u0434\u0430\u043d\u0438\u044f \u0433\u043e\u0442\u043e\u0432\u044b\u0445 \u043c\u043e\u0431\u0438\u043b\u044c\u043d\u044b\u0445 \u0441\u0438\u0441\u0442\u0435\u043c
p503
sS'summary_detail'
p504
g1
(g2
g3
(dp505
g9
S'http://www.opennet.ru/opennews/opennews_all_noadv.rss'
p506
sg11
S'text/html'
p507
sg13
Nsg14
V\u041a\u043e\u043c\u043f\u0430\u043d\u0438\u044f Digia \u0430\u043d\u043e\u043d\u0441\u0438\u0440\u043e\u0432\u0430\u043b\u0430 \u0432\u0442\u043e\u0440\u043e\u0439 \u0437\u043d\u0430\u0447\u0438\u0442\u0435\u043b\u044c\u043d\u044b\u0439 \u0432\u044b\u043f\u0443\u0441\u043a \u043f\u0440\u043e\u0434\u0443\u043a\u0442\u0430 Qt Enterprise Embedded (Qt EE), \u0440\u0430\u0437\u0432\u0438\u0432\u0430\u0435\u043c\u043e\u0433\u043e \u0432 \u0440\u0430\u043c\u043a\u0430\u0445  \u043f\u0440\u043e\u0435\u043a\u0442\u0430 Boot to Qt, \u043d\u0430\u0446\u0435\u043b\u0435\u043d\u043d\u043e\u0433\u043e \u043d\u0430 \u043f\u0440\u0435\u0434\u043e\u0441\u0442\u0430\u0432\u043b\u0435\u043d\u0438\u0435 \u0441\u0440\u0435\u0434\u0441\u0442\u0432 \u0434\u043b\u044f \u0444\u043e\u0440\u043c\u0438\u0440\u043e\u0432\u0430\u043d\u0438\u044f \u0438 \u043f\u043e\u0434\u0434\u0435\u0440\u0436\u0430\u043d\u0438\u044f \u043f\u043e\u043b\u043d\u043e\u0446\u0435\u043d\u043d\u044b\u0445 \u0437\u0430\u0433\u0440\u0443\u0437\u043e\u0447\u043d\u044b\u0445 \u043c\u043e\u0431\u0438\u043b\u044c\u043d\u044b\u0445 \u0441\u0438\u0441\u0442\u0435\u043c \u0441 \u043e\u043a\u0440\u0443\u0436\u0435\u043d\u0438\u0435\u043c \u043d\u0430 \u0431\u0430\u0437\u0435 Qt \u0438 QML.
p508
stRp509
sg60
g508
sg61
I00
sS'title_detail'
p510
g1
(g2
g3
(dp511
g9
S'http://www.opennet.ru/opennews/opennews_all_noadv.rss'
p512
sg11
S'text/plain'
p513
sg13
Nsg14
g503
stRp514
sg29
g501
sg67
(lp515
g250
aV*
ag251
asg71
Vhttp://www.opennet.ru/opennews/art.shtml?num=39185
p516
stRp517
ag1
(g2
g3
(dp518
g37
VTue, 25 Feb 2014 12:36:18 +0600
p519
sg47
g38
((I2014
I2
I25
I6
I36
I18
I1
I56
I0
t(dtRp520
sg19
(lp521
g1
(g2
g3
(dp522
g22
Vhttp://www.opennet.ru/opennews/art.shtml?num=39183
p523
sg11
g24
sg25
g26
stRp524
asg28
V\u0412 KDE 4.13 \u043d\u0430 \u0441\u043c\u0435\u043d\u0443 Nepomuk \u043f\u0440\u0438\u0434\u0451\u0442 \u043d\u043e\u0432\u0430\u044f \u0440\u0435\u0430\u043b\u0438\u0437\u0430\u0446\u0438\u044f \u0441\u0435\u043c\u0430\u043d\u0442\u0438\u0447\u0435\u0441\u043a\u043e\u0433\u043e \u043f\u043e\u0438\u0441\u043a\u0430
p525
sS'summary_detail'
p526
g1
(g2
g3
(dp527
g9
S'http://www.opennet.ru/opennews/opennews_all_noadv.rss'
p528
sg11
S'text/html'
p529
sg13
Nsg14
V\u0420\u0430\u0437\u0440\u0430\u0431\u043e\u0442\u0447\u0438\u043a\u0438 \u043f\u0440\u043e\u0435\u043a\u0442\u0430 KDE \u0441\u043e\u043e\u0431\u0449\u0438\u043b\u0438 \u043e \u0440\u0435\u0448\u0435\u043d\u0438\u0438 \u0432\u043a\u043b\u044e\u0447\u0438\u0442\u044c \u0432 \u0441\u043e\u0441\u0442\u0430\u0432 \u0441\u043b\u0435\u0434\u0443\u044e\u0449\u0435\u0433\u043e \u0432\u044b\u043f\u0443\u0441\u043a\u0430 KDE 4.13 \u0443\u043b\u0443\u0447\u0448\u0435\u043d\u043d\u043e\u0439 \u0440\u0435\u0430\u043b\u0438\u0437\u0430\u0446\u0438\u0438 \u0441\u0438\u0441\u0442\u0435\u043c\u044b \u0441\u0435\u043c\u0430\u043d\u0442\u0438\u0447\u0435\u0441\u043a\u043e\u0433\u043e \u043f\u043e\u0438\u0441\u043a\u0430, \u043f\u0440\u043e\u0434\u043e\u043b\u0436\u0430\u044e\u0449\u0435\u0439 \u0440\u0430\u0437\u0432\u0438\u0442\u0438\u0435 \u0441\u0435\u043c\u0430\u043d\u0442\u0438\u0447\u0435\u0441\u043a\u043e\u0433\u043e \u0434\u0432\u0438\u0436\u043a\u0430 Nepomuk. \u0412 \u0440\u0430\u043c\u043a\u0430\u0445 \u043f\u0440\u043e\u0435\u043a\u0442\u0430 Baloo \u043d\u0430 \u043e\u0441\u043d\u043e\u0432\u0435 \u0440\u0430\u043d\u0435\u0435 \u0434\u043e\u0441\u0442\u0443\u043f\u043d\u044b\u0445 \u043d\u0430\u0440\u0430\u0431\u043e\u0442\u043e\u043a Nepomuk \u043f\u043e\u0434\u0433\u043e\u0442\u043e\u0432\u043b\u0435\u043d \u043d\u043e\u0432\u044b\u0439 \u0444\u0440\u0435\u0439\u043c\u0432\u043e\u0440\u043a \u0434\u043b\u044f \u043e\u0431\u0440\u0430\u0431\u043e\u0442\u043a\u0438 \u043c\u0435\u0442\u0430\u0434\u0430\u043d\u043d\u044b\u0445, \u0442\u0430\u043a\u0438\u0445 \u043a\u0430\u043a \u0442\u0435\u0433\u0438, \u0440\u0435\u0439\u0442\u0438\u043d\u0433 \u0438 \u043a\u043e\u043c\u043c\u0435\u043d\u0442\u0430\u0440\u0438\u0438, \u0430 \u0442\u0430\u043a\u0436\u0435 \u0434\u043b\u044f \u043e\u0440\u0433\u0430\u043d\u0438\u0437\u0430\u0446\u0438\u0438 \u0445\u0440\u0430\u043d\u0435\u043d\u0438\u044f, \u0438\u043d\u0434\u0435\u043a\u0441\u0430\u0446\u0438\u0438 \u0438 \u043f\u043e\u0438\u0441\u043a\u0430 \u043f\u043e \u043a\u043e\u043d\u0442\u0435\u043d\u0442\u0443 \u043f\u043e\u043b\u044c\u0437\u043e\u0432\u0430\u0442\u0435\u043b\u044f, \u0432 \u0442\u043e\u043c \u0447\u0438\u0441\u043b\u0435 \u043f\u043e \u0444\u0430\u0439\u043b\u0430\u043c, \u043f\u043e\u0447\u0442\u043e\u0432\u044b\u043c \u0441\u043e\u043e\u0431\u0449\u0435\u043d\u0438\u044f\u043c, \u0430\u0434\u0440\u0435\u0441\u043d\u043e\u0439 \u043a\u043d\u0438\u0433\u0435 \u0438 \u0434\u0440\u0443\u0433\u043e\u0439 \u0438\u043d\u0444\u043e\u0440\u043c\u0430\u0446\u0438\u0438.
p530
stRp531
sg60
g530
sg61
I00
sS'title_detail'
p532
g1
(g2
g3
(dp533
g9
S'http://www.opennet.ru/opennews/opennews_all_noadv.rss'
p534
sg11
S'text/plain'
p535
sg13
Nsg14
g525
stRp536
sg29
g523
sg67
(lp537
g250
aV*
ag251
asg71
Vhttp://www.opennet.ru/opennews/art.shtml?num=39183
p538
stRp539
ag1
(g2
g3
(dp540
g37
VTue, 25 Feb 2014 11:09:59 +0600
p541
sg47
g38
((I2014
I2
I25
I5
I9
I59
I1
I56
I0
t(dtRp542
sg19
(lp543
g1
(g2
g3
(dp544
g22
Vhttp://www.opennet.ru/opennews/art.shtml?num=39182
p545
sg11
g24
sg25
g26
stRp546
asg28
V\u0412\u044b\u043f\u0443\u0441\u043a Chrome OS 33
p547
sS'summary_detail'
p548
g1
(g2
g3
(dp549
g9
S'http://www.opennet.ru/opennews/opennews_all_noadv.rss'
p550
sg11
S'text/html'
p551
sg13
Nsg14
V\u041a\u043e\u043c\u043f\u0430\u043d\u0438\u044f Google \u043f\u0440\u0435\u0434\u0441\u0442\u0430\u0432\u0438\u043b\u0430 \u0440\u0435\u043b\u0438\u0437  \u043e\u043f\u0435\u0440\u0430\u0446\u0438\u043e\u043d\u043d\u043e\u0439 \u0441\u0438\u0441\u0442\u0435\u043c\u044b Chrome OS 33, \u043e\u0441\u043d\u043e\u0432\u0430\u043d\u043d\u043e\u0439 \u043d\u0430 \u044f\u0434\u0440\u0435 Linux, open source \u043a\u043e\u043c\u043f\u043e\u043d\u0435\u043d\u0442\u0430\u0445 \u0438 web-\u0431\u0440\u0430\u0443\u0437\u0435\u0440\u0435 Chrome. \u041f\u043e\u043b\u044c\u0437\u043e\u0432\u0430\u0442\u0435\u043b\u044c\u0441\u043a\u043e\u0435 \u043e\u043a\u0440\u0443\u0436\u0435\u043d\u0438\u0435 Chrome OS \u043e\u0433\u0440\u0430\u043d\u0438\u0447\u0438\u0432\u0430\u0435\u0442\u0441\u044f web-\u0431\u0440\u0430\u0443\u0437\u0435\u0440\u043e\u043c, \u0430 \u0432\u043c\u0435\u0441\u0442\u043e \u0441\u0442\u0430\u043d\u0434\u0430\u0440\u0442\u043d\u044b\u0445 \u043f\u0440\u043e\u0433\u0440\u0430\u043c\u043c \u0437\u0430\u0434\u0435\u0439\u0441\u0442\u0432\u043e\u0432\u0430\u043d\u044b web-\u043f\u0440\u0438\u043b\u043e\u0436\u0435\u043d\u0438\u044f, \u0442\u0435\u043c \u043d\u0435 \u043c\u0435\u043d\u0435\u0435, Chrome OS \u0432\u043a\u043b\u044e\u0447\u0430\u0435\u0442 \u0432 \u0441\u0435\u0431\u044f \u043f\u043e\u043b\u043d\u043e\u0446\u0435\u043d\u043d\u044b\u0439 \u043c\u043d\u043e\u0433\u043e\u043e\u043a\u043e\u043d\u043d\u044b\u0439 \u0438\u043d\u0442\u0435\u0440\u0444\u0435\u0439\u0441, \u0440\u0430\u0431\u043e\u0447\u0438\u0439 \u0441\u0442\u043e\u043b \u0438 \u043f\u0430\u043d\u0435\u043b\u044c \u0437\u0430\u0434\u0430\u0447. \u0421\u0431\u043e\u0440\u043a\u0430 Chrome OS 33 \u0434\u043e\u0441\u0442\u0443\u043f\u043d\u0430 \u0434\u043b\u044f \u0432\u0441\u0435\u0445 \u0430\u043a\u0442\u0443\u0430\u043b\u044c\u043d\u044b\u0445 \u043c\u043e\u0434\u0435\u043b\u0435\u0439  Chromebook, \u043a\u0440\u043e\u043c\u0435 Samsung Chromebook.
p552
stRp553
sg60
g552
sg61
I00
sS'title_detail'
p554
g1
(g2
g3
(dp555
g9
S'http://www.opennet.ru/opennews/opennews_all_noadv.rss'
p556
sg11
S'text/plain'
p557
sg13
Nsg14
g547
stRp558
sg29
g545
sg67
(lp559
g250
aV*
ag251
asg71
Vhttp://www.opennet.ru/opennews/art.shtml?num=39182
p560
stRp561
ag1
(g2
g3
(dp562
g37
VTue, 25 Feb 2014 10:28:54 +0600
p563
sg47
g38
((I2014
I2
I25
I4
I28
I54
I1
I56
I0
t(dtRp564
sg19
(lp565
g1
(g2
g3
(dp566
g22
Vhttp://www.opennet.ru/opennews/art.shtml?num=39181
p567
sg11
g24
sg25
g26
stRp568
asg28
V\u041d\u043e\u0432\u0430\u044f \u0432\u0435\u0440\u0441\u0438\u044f systemd 210
p569
sS'summary_detail'
p570
g1
(g2
g3
(dp571
g9
S'http://www.opennet.ru/opennews/opennews_all_noadv.rss'
p572
sg11
S'text/html'
p573
sg13
Nsg14
V\u0412\u0441\u0435\u0433\u043e \u0447\u0435\u0440\u0435\u0437 \u043f\u044f\u0442\u044c \u0434\u043d\u0435\u0439 \u0441 \u043c\u043e\u043c\u0435\u043d\u0442\u0430 \u0432\u044b\u043f\u0443\u0441\u043a\u0430 \u0437\u043d\u0430\u0447\u0438\u0442\u0435\u043b\u044c\u043d\u043e\u0433\u043e \u0440\u0435\u043b\u0438\u0437\u0430 systemd 209 \u041b\u0435\u043d\u043d\u0430\u0440\u0442 \u041f\u043e\u0442\u0442\u0435\u0440\u0438\u043d\u0433 (Lennart Poettering) \u043f\u0440\u0435\u0434\u0441\u0442\u0430\u0432\u0438\u043b \u043a\u043e\u0440\u0440\u0435\u043a\u0442\u0438\u0440\u0443\u044e\u0449\u0435\u0435 \u043e\u0431\u043d\u043e\u0432\u043b\u0435\u043d\u0438\u0435 \u0441\u0438\u0441\u0442\u0435\u043c\u043d\u043e\u0433\u043e \u043c\u0435\u043d\u0435\u0434\u0436\u0435\u0440\u0430 systemd 210, \u0432 \u043a\u043e\u0442\u043e\u0440\u043e\u043c \u043f\u043e \u0433\u043e\u0440\u044f\u0447\u0438\u043c \u0441\u043b\u0435\u0434\u0430\u043c \u0432\u043d\u0435\u0441\u0435\u043d\u043e 14 \u0438\u0441\u043f\u0440\u0430\u0432\u043b\u0435\u043d\u0438\u0439 \u0438 \u0443\u043b\u0443\u0447\u0448\u0435\u043d\u0438\u0439. \u041d\u043e\u0432\u044b\u0439 \u0432\u044b\u043f\u0443\u0441\u043a \u0443\u0436\u0435 \u0434\u043e\u0431\u0430\u0432\u043b\u0435\u043d \u0432 \u0440\u0435\u043f\u043e\u0437\u0438\u0442\u043e\u0440\u0438\u0439 Fedora Rawhide.
p574
stRp575
sg60
g574
sg61
I00
sS'title_detail'
p576
g1
(g2
g3
(dp577
g9
S'http://www.opennet.ru/opennews/opennews_all_noadv.rss'
p578
sg11
S'text/plain'
p579
sg13
Nsg14
g569
stRp580
sg29
g567
sg67
(lp581
g250
aV*
ag251
asg71
Vhttp://www.opennet.ru/opennews/art.shtml?num=39181
p582
stRp583
ag1
(g2
g3
(dp584
g37
VTue, 25 Feb 2014 05:07:39 +0600
p585
sg47
g38
((I2014
I2
I24
I23
I7
I39
I0
I55
I0
t(dtRp586
sg19
(lp587
g1
(g2
g3
(dp588
g22
Vhttp://www.opennet.ru/opennews/art.shtml?num=39179
p589
sg11
g24
sg25
g26
stRp590
asg28
V\u041f\u0440\u043e\u0435\u043a\u0442 OpenBSD \u0432\u043f\u0435\u0440\u0432\u044b\u0435 \u0443\u0447\u0430\u0441\u0442\u0432\u0443\u0435\u0442 \u0432 \u043f\u0440\u043e\u0433\u0440\u0430\u043c\u043c\u0435 Google Summer of Code
p591
sS'summary_detail'
p592
g1
(g2
g3
(dp593
g9
S'http://www.opennet.ru/opennews/opennews_all_noadv.rss'
p594
sg11
S'text/html'
p595
sg13
Nsg14
V\u0412 2014 \u0433\u043e\u0434\u0443 \u043e\u0440\u0433\u0430\u043d\u0438\u0437\u0430\u0446\u0438\u044f OpenBSD Foundation \u0441\u0442\u0430\u043b\u0430 \u0443\u0447\u0430\u0441\u0442\u043d\u0438\u043a\u043e\u043c \u0441\u043f\u043e\u043d\u0441\u043e\u0440\u0441\u043a\u043e\u0439 \u043f\u0440\u043e\u0433\u0440\u0430\u043c\u043c\u044b Google Summer of Code - \u043f\u0435\u0440\u0432\u044b\u0439 \u0440\u0430\u0437 \u0437\u0430 \u0432\u0441\u0451 \u0432\u0440\u0435\u043c\u044f \u0441\u0443\u0449\u0435\u0441\u0442\u0432\u043e\u0432\u0430\u043d\u0438\u044f \u0434\u0430\u043d\u043d\u043e\u0439 \u043f\u0440\u043e\u0433\u0440\u0430\u043c\u043c\u044b. OpenBSD Foundation \u044f\u0432\u043b\u044f\u0435\u0442\u0441\u044f \u043d\u0435\u043a\u043e\u043c\u043c\u0435\u0440\u0447\u0435\u0441\u043a\u043e\u0439 \u043e\u0440\u0433\u0430\u043d\u0438\u0437\u0430\u0446\u0438\u0435\u0439, \u043f\u043e\u043c\u043e\u0433\u0430\u044e\u0449\u0435\u0439, \u043d\u043e \u043d\u0435 \u043e\u043f\u0440\u0435\u0434\u0435\u043b\u044f\u044e\u0449\u0435\u0439 \u0440\u0430\u0437\u0432\u0438\u0442\u0438\u0435 \u043f\u0440\u043e\u0435\u043a\u0442\u0430 OpenBSD. \u041e\u0442\u0441\u0443\u0442\u0441\u0442\u0432\u0438\u0435 OpenBSD \u0432 \u0447\u0438\u0441\u043b\u0435 \u0443\u0447\u0430\u0441\u0442\u043d\u0438\u043a\u043e\u0432 GSoC \u0440\u0430\u043d\u0435\u0435 \u0431\u044b\u043b\u043e \u0441\u0432\u044f\u0437\u0430\u043d\u043e \u0441 \u0440\u044f\u0434\u043e\u043c \u044e\u0440\u0438\u0434\u0438\u0447\u0435\u0441\u043a\u0438\u0445 \u043d\u044e\u0430\u043d\u0441\u043e\u0432, \u043d\u0430 \u0434\u0430\u043d\u043d\u044b\u0439 \u043c\u043e\u043c\u0435\u043d\u0442 \u0440\u0435\u0448\u0451\u043d\u043d\u044b\u0445.
p596
stRp597
sg60
g596
sg61
I00
sS'title_detail'
p598
g1
(g2
g3
(dp599
g9
S'http://www.opennet.ru/opennews/opennews_all_noadv.rss'
p600
sg11
S'text/plain'
p601
sg13
Nsg14
g591
stRp602
sg29
g589
sg67
(lp603
g250
aV*
ag251
asg71
Vhttp://www.opennet.ru/opennews/art.shtml?num=39179
p604
stRp605
ag1
(g2
g3
(dp606
g37
VMon, 24 Feb 2014 23:21:14 +0600
p607
sg47
g38
((I2014
I2
I24
I17
I21
I14
I0
I55
I0
t(dtRp608
sg19
(lp609
g1
(g2
g3
(dp610
g22
Vhttp://www.opennet.ru/opennews/art.shtml?num=39178
p611
sg11
g24
sg25
g26
stRp612
asg28
V\u0412 \u0440\u0430\u043c\u043a\u0430\u0445 \u043f\u0440\u043e\u0435\u043a\u0442\u0430 Neovim \u043f\u0440\u0435\u0434\u043f\u0440\u0438\u043d\u044f\u0442\u0430 \u043f\u043e\u043f\u044b\u0442\u043a\u0430 \u043c\u043e\u0434\u0435\u0440\u043d\u0438\u0437\u0430\u0446\u0438\u0438 Vim
p613
sS'summary_detail'
p614
g1
(g2
g3
(dp615
g9
S'http://www.opennet.ru/opennews/opennews_all_noadv.rss'
p616
sg11
S'text/html'
p617
sg13
Nsg14
V\u0410\u043d\u043e\u043d\u0441\u0438\u0440\u043e\u0432\u0430\u043d \u043f\u0440\u043e\u0435\u043a\u0442 Neovim, \u0432 \u0440\u0430\u043c\u043a\u0430\u0445 \u043a\u043e\u0442\u043e\u0440\u043e\u0433\u043e \u043f\u043b\u0430\u043d\u0438\u0440\u0443\u0435\u0442\u0441\u044f \u043f\u0440\u043e\u0432\u0435\u0441\u0442\u0438 \u0440\u0430\u0431\u043e\u0442\u0443 \u043f\u043e \u0440\u0435\u0444\u0430\u043a\u0442\u043e\u0440\u0438\u043d\u0433\u0443 \u0438 \u043c\u043e\u0434\u0435\u0440\u043d\u0438\u0437\u0430\u0446\u0438\u0438 \u043a\u043e\u0434\u043e\u0432\u043e\u0439 \u0431\u0430\u0437\u044b \u0442\u0435\u043a\u0441\u0442\u043e\u0432\u043e\u0433\u043e \u0440\u0435\u0434\u0430\u043a\u0442\u043e\u0440\u0430 Vim. \u0412 \u0442\u0435\u043a\u0443\u0449\u0435\u043c \u0432\u0438\u0434\u0435 \u043a\u043e\u0434 Vim \u0440\u0430\u0437\u0432\u0438\u0432\u0430\u0435\u0442\u0441\u044f \u0431\u043e\u043b\u0435\u0435 20 \u043b\u0435\u0442 \u0438 \u0441\u043e\u0441\u0442\u043e\u0438\u0442 \u0438\u0437 \u0431\u043e\u043b\u0435\u0435 \u0447\u0435\u043c 300 \u0442\u044b\u0441\u044f\u0447 \u0441\u0442\u0440\u043e\u043a \u043d\u0430 \u044f\u0437\u044b\u043a\u0435 \u0421\u0438 (C89), \u0430 \u0432\u043e \u0432\u0441\u0435\u0445 \u043d\u044e\u0430\u043d\u0441\u0430\u0445 \u043a\u043e\u0434\u043e\u0432\u043e\u0439 \u0431\u0430\u0437\u044b Vim \u0440\u0430\u0437\u0431\u0438\u0440\u0430\u0435\u0442\u0441\u044f \u0432\u0441\u0435\u0433\u043e \u043d\u0435\u0441\u043a\u043e\u043b\u044c\u043a\u043e \u0447\u0435\u043b\u043e\u0432\u0435\u043a, \u0447\u0442\u043e \u0437\u0430\u0442\u0440\u0443\u0434\u043d\u044f\u0435\u0442 \u0441\u043e\u043f\u0440\u043e\u0432\u043e\u0436\u0434\u0435\u043d\u0438\u0435 \u0438 \u0440\u0430\u0431\u043e\u0442\u0443 \u043d\u0430\u0434 \u0443\u0441\u043e\u0432\u0435\u0440\u0448\u0435\u043d\u0441\u0442\u0432\u043e\u0432\u0430\u043d\u0438\u0435\u043c \u0440\u0435\u0434\u0430\u043a\u0442\u043e\u0440\u0430.
p618
stRp619
sg60
g618
sg61
I00
sS'title_detail'
p620
g1
(g2
g3
(dp621
g9
S'http://www.opennet.ru/opennews/opennews_all_noadv.rss'
p622
sg11
S'text/plain'
p623
sg13
Nsg14
g613
stRp624
sg29
g611
sg67
(lp625
g250
aV*
ag251
asg71
Vhttp://www.opennet.ru/opennews/art.shtml?num=39178
p626
stRp627
ag1
(g2
g3
(dp628
g37
VMon, 24 Feb 2014 23:02:26 +0600
p629
sg47
g38
((I2014
I2
I24
I17
I2
I26
I0
I55
I0
t(dtRp630
sg19
(lp631
g1
(g2
g3
(dp632
g22
Vhttp://www.opennet.ru/opennews/art.shtml?num=39177
p633
sg11
g24
sg25
g26
stRp634
asg28
VIBM \u043f\u043e\u043a\u0443\u043f\u0430\u0435\u0442 \u043a\u043e\u043c\u043f\u0430\u043d\u0438\u044e Cloudant \u0438 \u0432\u044b\u0434\u0435\u043b\u044f\u0435\u0442 \u0434\u043e\u043f\u043e\u043b\u043d\u0438\u0442\u0435\u043b\u044c\u043d\u044b\u0435 \u0440\u0435\u0441\u0443\u0440\u0441\u044b \u0434\u043b\u044f  \u0440\u0430\u0437\u0440\u0430\u0431\u043e\u0442\u043a\u0438 Apache CouchDB
p635
sS'summary_detail'
p636
g1
(g2
g3
(dp637
g9
S'http://www.opennet.ru/opennews/opennews_all_noadv.rss'
p638
sg11
S'text/html'
p639
sg13
Nsg14
V\u041a\u043e\u0440\u043f\u043e\u0440\u0430\u0446\u0438\u044f IBM \u043e\u0431\u044a\u044f\u0432\u0438\u043b\u0430 \u043e \u043f\u043e\u0433\u043b\u043e\u0449\u0435\u043d\u0438\u0438 \u043a\u043e\u043c\u043f\u0430\u043d\u0438\u0438 Cloudant, \u0440\u0430\u0437\u0432\u0438\u0432\u0430\u044e\u0449\u0435\u0439 \u043e\u0431\u043b\u0430\u0447\u043d\u044b\u0435 DBaaS-\u0441\u0435\u0440\u0432\u0438\u0441\u044b \u043d\u0430 \u0431\u0430\u0437\u0435 Apache CouchDB \u0438 \u0430\u043a\u0442\u0438\u0432\u043d\u043e \u0443\u0447\u0430\u0441\u0442\u0432\u0443\u044e\u0449\u0435\u0439 \u0432 \u0440\u0430\u0437\u0440\u0430\u0431\u043e\u0442\u043a\u0435 \u0434\u0430\u043d\u043d\u043e\u0439 \u0434\u043e\u043a\u0443\u043c\u0435\u043d\u0442-\u043e\u0440\u0438\u0435\u043d\u0442\u0438\u0440\u043e\u0432\u0430\u043d\u043d\u043e\u0439 \u0431\u0430\u0437\u044b \u0434\u0430\u043d\u043d\u044b\u0445. \u0421\u0434\u0435\u043b\u043a\u0430 \u043f\u0440\u0435\u0434\u0441\u0442\u0430\u0432\u043b\u044f\u0435\u0442 \u0438\u043d\u0442\u0435\u0440\u0435\u0441 \u0434\u043b\u044f \u0441\u043e\u043e\u0431\u0449\u0435\u0441\u0442\u0432\u0430 Apache \u043d\u0430\u043c\u0435\u0440\u0435\u043d\u0438\u0435\u043c IBM \u0444\u043e\u0440\u0441\u0438\u0440\u043e\u0432\u0430\u0442\u044c \u0440\u0430\u0437\u0432\u0438\u0442\u0438\u0435 Apache CouchDB \u0438 \u0432\u044b\u0434\u0435\u043b\u0438\u0442\u044c \u0434\u043e\u043f\u043e\u043b\u043d\u0438\u0442\u0435\u043b\u044c\u043d\u044b\u0435 \u0440\u0435\u0441\u0443\u0440\u0441\u044b \u0434\u043b\u044f \u0443\u0447\u0430\u0441\u0442\u0438\u044f \u0432 \u0441\u043e\u0432\u043c\u0435\u0441\u0442\u043d\u043e\u0439 \u0440\u0430\u0431\u043e\u0442\u0435 \u043d\u0430\u0434 \u043f\u0440\u043e\u0435\u043a\u0442\u043e\u043c.
p640
stRp641
sg60
g640
sg61
I00
sS'title_detail'
p642
g1
(g2
g3
(dp643
g9
S'http://www.opennet.ru/opennews/opennews_all_noadv.rss'
p644
sg11
S'text/plain'
p645
sg13
Nsg14
g635
stRp646
sg29
g633
sg67
(lp647
g250
aV*
ag251
asg71
Vhttp://www.opennet.ru/opennews/art.shtml?num=39177
p648
stRp649
ag1
(g2
g3
(dp650
g37
VMon, 24 Feb 2014 22:06:07 +0600
p651
sg47
g38
((I2014
I2
I24
I16
I6
I7
I0
I55
I0
t(dtRp652
sg19
(lp653
g1
(g2
g3
(dp654
g22
Vhttp://www.opennet.ru/opennews/art.shtml?num=39176
p655
sg11
g24
sg25
g26
stRp656
asg28
V\u041f\u0435\u0440\u0432\u044b\u0435 \u0444\u043e\u0442\u043e\u0433\u0440\u0430\u0444\u0438\u0438 \u0441\u043c\u0430\u0440\u0442\u0444\u043e\u043d\u043e\u0432 BQ \u0438 Meizu \u043d\u0430 \u0431\u0430\u0437\u0435 Ubuntu
p657
sS'summary_detail'
p658
g1
(g2
g3
(dp659
g9
S'http://www.opennet.ru/opennews/opennews_all_noadv.rss'
p660
sg11
S'text/html'
p661
sg13
Nsg14
V\u041e\u043f\u0443\u0431\u043b\u0438\u043a\u043e\u0432\u0430\u043d\u044b \u0444\u043e\u0442\u043e\u0433\u0440\u0430\u0444\u0438\u0438 \u043f\u0435\u0440\u0432\u044b\u0445 \u043c\u043e\u0434\u0435\u043b\u0435\u0439 \u0441\u043c\u0430\u0440\u0442\u0444\u043e\u043d\u043e\u0432 Meizu MX3 \u0438 BQ Aquaris, \u043f\u043e\u0441\u0442\u0440\u043e\u0435\u043d\u043d\u044b\u0445 \u043d\u0430 \u0431\u0430\u0437\u0435 Ubuntu Linux. \u0412\u0440\u0435\u043c\u044f \u043f\u043e\u0441\u0442\u0443\u043f\u043b\u0435\u043d\u0438\u044f \u0432 \u043f\u0440\u043e\u0434\u0430\u0436\u0443, \u043f\u043e\u043b\u043d\u044b\u0435 \u0445\u0430\u0440\u0430\u043a\u0442\u0435\u0440\u0438\u0441\u0442\u0438\u043a\u0438 \u0438 \u0446\u0435\u043d\u044b \u043f\u043e\u043a\u0430 \u043d\u0435 \u0441\u043e\u043e\u0431\u0449\u0430\u044e\u0442\u0441\u044f.
p662
stRp663
sg60
g662
sg61
I00
sS'title_detail'
p664
g1
(g2
g3
(dp665
g9
S'http://www.opennet.ru/opennews/opennews_all_noadv.rss'
p666
sg11
S'text/plain'
p667
sg13
Nsg14
g657
stRp668
sg29
g655
sg67
(lp669
g250
aV*
ag251
asg71
Vhttp://www.opennet.ru/opennews/art.shtml?num=39176
p670
stRp671
ag1
(g2
g3
(dp672
g37
VMon, 24 Feb 2014 20:14:29 +0600
p673
sg47
g38
((I2014
I2
I24
I14
I14
I29
I0
I55
I0
t(dtRp674
sg19
(lp675
g1
(g2
g3
(dp676
g22
Vhttp://www.opennet.ru/opennews/art.shtml?num=39174
p677
sg11
g24
sg25
g26
stRp678
asg28
V\u041a\u043e\u043c\u043f\u0430\u043d\u0438\u044f Nokia \u043f\u0440\u0435\u0434\u0441\u0442\u0430\u0432\u0438\u043b\u0430 \u0442\u0440\u0438 \u0441\u043c\u0430\u0440\u0442\u0444\u043e\u043d\u0430 \u043d\u0430 \u043f\u043b\u0430\u0442\u0444\u043e\u0440\u043c\u0435 Android
p679
sS'summary_detail'
p680
g1
(g2
g3
(dp681
g9
S'http://www.opennet.ru/opennews/opennews_all_noadv.rss'
p682
sg11
S'text/html'
p683
sg13
Nsg14
V\u041d\u0430 \u0412\u0441\u0435\u043c\u0438\u0440\u043d\u043e\u043c \u043a\u043e\u043d\u0433\u0440\u0435\u0441\u0441\u0435 \u043c\u043e\u0431\u0438\u043b\u044c\u043d\u044b\u0445 \u0442\u0435\u0445\u043d\u043e\u043b\u043e\u0433\u0438\u0439 \u043a\u043e\u043c\u043f\u0430\u043d\u0438\u044f Nokia \u043f\u0440\u0435\u0434\u0441\u0442\u0430\u0432\u0438\u043b\u0430 \u0442\u0440\u0438 \u0441\u043c\u0430\u0440\u0442\u0444\u043e\u043d\u0430 Nokia X, Nokia XL \u0438 Nokia X+, \u043f\u043e\u0441\u0442\u0440\u043e\u0435\u043d\u043d\u044b\u0445 \u043d\u0430 \u0431\u0430\u0437\u0435 \u043f\u043b\u0430\u0442\u0444\u043e\u0440\u043c\u044b Android 4.1.2. \u0412 \u0443\u0441\u0442\u0440\u043e\u0439\u0441\u0442\u0432\u0430\u0445 \u0438\u0441\u043f\u043e\u043b\u044c\u0437\u0443\u0435\u0442\u0441\u044f \u0441\u043e\u0431\u0441\u0442\u0432\u0435\u043d\u043d\u043e\u0435 \u043e\u0442\u0432\u0435\u0442\u0432\u043b\u0435\u043d\u0438\u0435 Android, \u043f\u0440\u0438\u0432\u044f\u0437\u0430\u043d\u043d\u043e\u0435 \u043a \u0441\u0435\u0440\u0432\u0438\u0441\u0430\u043c Nokia Lumia \u0438 Microsoft, \u0442\u0430\u043a\u0438\u043c \u043a\u0430\u043a Skype,  Bing, Here Maps, OneDrive \u0438 outlook.com. \u0414\u043b\u044f \u0443\u0441\u0442\u0430\u043d\u043e\u0432\u043a\u0438 \u043f\u0440\u043e\u0433\u0440\u0430\u043c\u043c \u043f\u0440\u0435\u0434\u043b\u0430\u0433\u0430\u0435\u0442\u0441\u044f \u0441\u043e\u0431\u0441\u0442\u0432\u0435\u043d\u043d\u044b\u0439 \u043c\u0430\u0433\u0430\u0437\u0438\u043d \u043f\u0440\u0438\u043b\u043e\u0436\u0435\u043d\u0438\u0439 (\u0434\u043e\u0441\u0442\u0443\u043f  \u043a Google Play \u043d\u0435 \u043f\u0440\u0435\u0434\u043e\u0441\u0442\u0430\u0432\u043b\u044f\u0435\u0442\u0441\u044f). \u041e\u0444\u043e\u0440\u043c\u043b\u0435\u043d\u0438\u0435 \u0438\u043d\u0442\u0435\u0440\u0444\u0435\u0439\u0441\u0430 \u043f\u043e\u043b\u044c\u0437\u043e\u0432\u0430\u0442\u0435\u043b\u044f \u043f\u043e\u043b\u043d\u043e\u0441\u0442\u044c\u044e \u043f\u0435\u0440\u0435\u0440\u0430\u0431\u043e\u0442\u0430\u043d\u043e \u0438 \u0432\u043e \u043c\u043d\u043e\u0433\u043e\u043c \u043d\u0430\u043f\u043e\u043c\u0438\u043d\u0430\u0435\u0442 \u0438\u043d\u0442\u0435\u0440\u0444\u0435\u0439\u0441 Windows Phone.
p684
stRp685
sg60
g684
sg61
I00
sS'title_detail'
p686
g1
(g2
g3
(dp687
g9
S'http://www.opennet.ru/opennews/opennews_all_noadv.rss'
p688
sg11
S'text/plain'
p689
sg13
Nsg14
g679
stRp690
sg29
g677
sg67
(lp691
g250
aV*
ag251
asg71
Vhttp://www.opennet.ru/opennews/art.shtml?num=39174
p692
stRp693
ag1
(g2
g3
(dp694
g37
VMon, 24 Feb 2014 19:16:26 +0600
p695
sg47
g38
((I2014
I2
I24
I13
I16
I26
I0
I55
I0
t(dtRp696
sg19
(lp697
g1
(g2
g3
(dp698
g22
Vhttp://www.opennet.ru/opennews/art.shtml?num=39173
p699
sg11
g24
sg25
g26
stRp700
asg28
V\u0420\u0435\u043b\u0438\u0437 Ruby 2.1.1. \u042f\u0437\u044b\u043a\u0443 Ruby \u0438\u0441\u043f\u043e\u043b\u043d\u0438\u043b\u0441\u044f 21 \u0433\u043e\u0434
p701
sS'summary_detail'
p702
g1
(g2
g3
(dp703
g9
S'http://www.opennet.ru/opennews/opennews_all_noadv.rss'
p704
sg11
S'text/html'
p705
sg13
Nsg14
V\u041f\u0440\u0435\u0434\u0441\u0442\u0430\u0432\u043b\u0435\u043d \u0440\u0435\u043b\u0438\u0437 \u044f\u0437\u044b\u043a\u0430 \u043f\u0440\u043e\u0433\u0440\u0430\u043c\u043c\u0438\u0440\u043e\u0432\u0430\u043d\u0438\u044f Ruby 2.1.1, \u043a\u043e\u0442\u043e\u0440\u044b\u0439 \u0432\u044b\u043f\u0443\u0449\u0435\u043d \u0432 \u0440\u0430\u043c\u043a\u0430\u0445 \u043d\u043e\u0432\u043e\u0439 \u0441\u0445\u0435\u043c\u044b \u043d\u0443\u043c\u0435\u0440\u0430\u0446\u0438\u0438 \u0432\u0435\u0440\u0441\u0438\u0439. \u0412 \u043d\u043e\u0432\u043e\u0439 \u0432\u0435\u0440\u0441\u0438\u0438 \u043f\u0440\u0435\u0434\u0441\u0442\u0430\u0432\u043b\u0435\u043d\u0430 \u043f\u043e\u0440\u0446\u0438\u044f \u0438\u0441\u043f\u0440\u0430\u0432\u043b\u0435\u043d\u0438\u0439 \u043e\u0448\u0438\u0431\u043e\u043a \u0438 \u043e\u043f\u0442\u0438\u043c\u0438\u0437\u0430\u0446\u0438\u0439, \u043f\u0440\u0438 \u0441\u043e\u0445\u0440\u0430\u043d\u0435\u043d\u0438\u0438 \u043f\u043e\u043b\u043d\u043e\u0439 \u0441\u043e\u0432\u043c\u0435\u0441\u0442\u0438\u043c\u043e\u0441\u0442\u0438 \u0441 \u0432\u044b\u043f\u0443\u0441\u043a\u043e\u043c 2.1.0.   \u041e\u0434\u043d\u043e\u0432\u0440\u0435\u043c\u0435\u043d\u043d\u043e \u043f\u0440\u043e\u0435\u043a\u0442 \u043f\u0440\u0430\u0437\u0434\u043d\u0443\u0435\u0442 21 \u0433\u043e\u0434 \u0441 \u043c\u043e\u043c\u0435\u043d\u0442\u0430 \u0441\u0432\u043e\u0435\u0433\u043e \u043e\u0441\u043d\u043e\u0432\u0430\u043d\u0438\u044f.
p706
stRp707
sg60
g706
sg61
I00
sS'title_detail'
p708
g1
(g2
g3
(dp709
g9
S'http://www.opennet.ru/opennews/opennews_all_noadv.rss'
p710
sg11
S'text/plain'
p711
sg13
Nsg14
g701
stRp712
sg29
g699
sg67
(lp713
g250
aV*
ag251
asg71
Vhttp://www.opennet.ru/opennews/art.shtml?num=39173
p714
stRp715
ag1
(g2
g3
(dp716
S'summary_detail'
p717
g1
(g2
g3
(dp718
S'base'
p719
S'http://www.opennet.ru/opennews/opennews_all_noadv.rss'
p720
sS'type'
p721
S'text/html'
p722
sS'language'
p723
NsS'value'
p724
V\u041a\u043e\u043c\u043f\u0430\u043d\u0438\u044f Samsung \u0430\u043d\u043e\u043d\u0441\u0438\u0440\u043e\u0432\u0430\u043b\u0430 \u0443\u043c\u043d\u044b\u0435 \u0447\u0430\u0441\u044b Gear 2 \u0438 Gear 2 Neo, \u043a\u043e\u0442\u043e\u0440\u044b\u0435 \u0432 \u043e\u0442\u043b\u0438\u0447\u0438\u0435 \u043e\u0442 \u043f\u0435\u0440\u0432\u043e\u0439 \u043c\u043e\u0434\u0435\u043b\u0438 \u0431\u0443\u0434\u0443\u0442 \u043f\u043e\u0441\u0442\u0430\u0432\u043b\u044f\u0435\u0442\u0441\u044f \u0441\u043e \u0441\u0432\u043e\u0431\u043e\u0434\u043d\u043e\u0439 \u043c\u043e\u0431\u0438\u043b\u044c\u043d\u043e\u0439 \u043f\u043b\u0430\u0442\u0444\u043e\u0440\u043c\u043e\u0439 Tizen, \u0440\u0430\u0437\u0432\u0438\u0432\u0430\u0435\u043c\u043e\u0439 \u0441\u043e\u0432\u043c\u0435\u0441\u0442\u043d\u043e \u0441 \u043a\u043e\u043c\u043f\u0430\u043d\u0438\u0435\u0439 Intel \u043f\u043e\u0434 \u044d\u0433\u0438\u0434\u043e\u0439 \u043e\u0440\u0433\u0430\u043d\u0438\u0437\u0430\u0446\u0438\u0438 Linux Foundation. \u041e \u043f\u0440\u0438\u0447\u0438\u043d\u0430\u0445 \u0437\u0430\u043c\u0435\u043d\u044b Android \u043d\u0430 Tizen \u043d\u0435 \u0441\u043e\u043e\u0431\u0449\u0430\u0435\u0442\u0441\u044f.
p725
stRp726
sS'updated_parsed'
p727
g38
((I2014
I2
I24
I11
I22
I49
I0
I55
I0
t(dtRp728
sS'links'
p729
(lp730
g1
(g2
g3
(dp731
S'href'
p732
Vhttp://www.opennet.ru/opennews/art.shtml?num=39172
p733
sg721
S'text/html'
p734
sS'rel'
p735
S'alternate'
p736
stRp737
asS'title'
p738
VSamsung \u043e\u0441\u043d\u0430\u0441\u0442\u0438\u043b \u0443\u043c\u043d\u044b\u0435 \u0447\u0430\u0441\u044b Gear 2 \u043f\u043b\u0430\u0442\u0444\u043e\u0440\u043c\u043e\u0439 Tizen \u0432\u043c\u0435\u0441\u0442\u043e Android
p739
sS'updated'
p740
VMon, 24 Feb 2014 17:22:49 +0600
p741
sS'summary'
p742
g725
sS'guidislink'
p743
I00
sS'title_detail'
p744
g1
(g2
g3
(dp745
g719
S'http://www.opennet.ru/opennews/opennews_all_noadv.rss'
p746
sg721
S'text/plain'
p747
sg723
Nsg724
g739
stRp748
sS'link'
p749
g733
sS'canto_state'
p750
(lp751
g250
aV*
ag251
asS'id'
p752
Vhttp://www.opennet.ru/opennews/art.shtml?num=39172
p753
stRp754
ag1
(g2
g3
(dp755
S'summary_detail'
p756
g1
(g2
g3
(dp757
g719
S'http://www.opennet.ru/opennews/opennews_all_noadv.rss'
p758
sg721
S'text/html'
p759
sg723
Nsg724
V\u0420\u0430\u0437\u0440\u0430\u0431\u043e\u0442\u0447\u0438\u043a FreeBSD Wojciech Adam Koszek \u043e\u043f\u0443\u0431\u043b\u0438\u043a\u043e\u0432\u0430\u043b \u043c\u0430\u043d\u0438\u0444\u0435\u0441\u0442 \u0441  \u0442\u0435\u0437\u0438\u0441\u0430\u043c\u0438 \u0434\u043b\u044f \u0440\u0430\u0437\u0432\u0438\u0442\u0438\u044f \u0441\u0438\u0441\u0442\u0435\u043c\u044b. \u0412 \u0447\u0438\u0441\u043b\u0435 \u0438\u0434\u0435\u0439 \u043f\u043e\u0434\u0433\u043e\u0442\u043e\u0432\u043a\u0430 \u043d\u0435 \u043f\u0440\u0438\u0432\u044f\u0437\u0430\u043d\u043d\u043e\u0433\u043e \u043a \u0432\u0435\u0440\u0441\u0438\u0438 \u0441\u0438\u0441\u0442\u0435\u043c\u044b \u0443\u043d\u0438\u0432\u0435\u0440\u0441\u0430\u043b\u044c\u043d\u043e\u0433\u043e \u0443\u0441\u0442\u0430\u043d\u043e\u0432\u0449\u0438\u043a\u0430, \u043d\u0435 \u0442\u0440\u0435\u0431\u0443\u044e\u0449\u0435\u0433\u043e \u043f\u0435\u0440\u0435\u0437\u0430\u043f\u0438\u0441\u0438 \u043d\u043e\u0441\u0438\u0442\u0435\u043b\u044f \u043f\u0440\u0438 \u043f\u043e\u044f\u0432\u043b\u0435\u043d\u0438\u0438 \u043d\u043e\u0432\u043e\u0439 \u0432\u0435\u0440\u0441\u0438\u0438, \u0433\u0440\u0430\u0444\u0438\u0447\u0435\u0441\u043a\u0438\u0439 \u0440\u0435\u0436\u0438\u043c \u0443\u0441\u0442\u0430\u043d\u043e\u0432\u043a\u0438, \u043f\u043e\u0434\u0434\u0435\u0440\u0436\u043a\u0430 \u0443\u043f\u0440\u0430\u0432\u043b\u0435\u043d\u0438\u044f \u0443\u0441\u0442\u0430\u043d\u043e\u0432\u043a\u043e\u0439 \u0438\u0437 \u0431\u0440\u0430\u0443\u0437\u0435\u0440\u0430 \u0441 \u0432\u043d\u0435\u0448\u043d\u0435\u0433\u043e \u0443\u0441\u0442\u0440\u043e\u0439\u0441\u0442\u0432\u0430 (\u043d\u0430\u043f\u0440\u0438\u043c\u0435\u0440, \u0441\u043e \u0441\u043c\u0430\u0440\u0442\u0444\u043e\u043d\u0430), \u043e\u0431\u043b\u0430\u0447\u043d\u044b\u0439 \u0441\u0435\u0440\u0432\u0438\u0441 FreeBSD ID \u0441 \u0435\u0434\u0438\u043d\u043e\u0439 \u0442\u043e\u0447\u043a\u043e\u0439 \u0432\u0445\u043e\u0434\u0430 \u0434\u043b\u044f \u043f\u0440\u0438\u0432\u044f\u0437\u043a\u0438 \u043d\u0430\u0441\u0442\u0440\u043e\u0435\u043a, \u0444\u0430\u0439\u043b\u043e\u0432 \u0438 \u0440\u0435\u0437\u0435\u0440\u0432\u043d\u044b\u0445 \u043a\u043e\u043f\u0438\u0439 \u043a \u0430\u043a\u043a\u0430\u0443\u043d\u0442\u0443 \u043f\u043e\u043b\u044c\u0437\u043e\u0432\u0430\u0442\u0435\u043b\u044f (\u043d\u0430\u043f\u0440\u0438\u043c\u0435\u0440, \u043f\u043e\u0441\u043b\u0435 \u0443\u0441\u0442\u0430\u043d\u043e\u0432\u043a\u0438 \u043d\u043e\u0432\u043e\u0439 \u0441\u0438\u0441\u0442\u0435\u043c\u044b \u043c\u043e\u0436\u043d\u043e \u0441\u0438\u043d\u0445\u0440\u043e\u043d\u0438\u0437\u0438\u0440\u043e\u0432\u0430\u0442\u044c \u0435\u0451 \u043a\u043e\u043d\u0444\u0438\u0433\u0443\u0440\u0430\u0446\u0438\u044e \u0441 \u0434\u0440\u0443\u0433\u043e\u0439 \u0441\u0438\u0441\u0442\u0435\u043c\u043e\u0439), BSDCloud \u0434\u043b\u044f \u0432\u044b\u043d\u043e\u0441\u0430 \u043e\u043f\u0435\u0440\u0430\u0446\u0438\u0439 \u0432 \u043e\u0431\u043b\u0430\u043a\u043e (\u043d\u0430\u043f\u0440\u0438\u043c\u0435\u0440, \u0441\u0431\u043e\u0440\u043a\u0430 \u044f\u0434\u0440\u0430 \u0432 \u043e\u0431\u043b\u0430\u043a\u0435), \u043f\u043e\u0434\u0434\u0435\u0440\u0436\u043a\u0430 \u043f\u0440\u043e\u0444\u0438\u043b\u0435\u0439 \u0443\u0441\u0442\u0430\u043d\u043e\u0432\u043a\u0438 (\u0432 \u0442\u043e\u043c \u0447\u0438\u0441\u043b\u0435 \u0438 \u0434\u043b\u044f \u043c\u043e\u0431\u0438\u043b\u044c\u043d\u044b\u0445 \u0443\u0441\u0442\u0440\u043e\u0439\u0441\u0442\u0432, \u043d\u043e\u0443\u0442\u0431\u0443\u043a\u043e\u0432, \u041f\u041a, \u0432\u0438\u0440\u0442\u0443\u0430\u043b\u044c\u043d\u044b\u0445 \u043c\u0430\u0448\u0438\u043d), \u0441\u0438\u0441\u0442\u0435\u043c\u0430 \u0440\u0435\u0433\u0440\u0435\u0441\u0441\u0438\u0432\u043d\u043e\u0433\u043e \u0442\u0435\u0441\u0442\u0438\u0440\u043e\u0432\u0430\u043d\u0438\u044f \u043a\u0430\u0436\u0434\u043e\u0433\u043e \u043a\u043e\u043c\u043c\u0438\u0442\u0430.
p760
stRp761
sg727
g38
((I2014
I2
I24
I10
I52
I0
I0
I55
I0
t(dtRp762
sg729
(lp763
g1
(g2
g3
(dp764
g732
Vhttp://www.opennet.ru/opennews/art.shtml?num=39168
p765
sg721
g734
sg735
g736
stRp766
asg738
V\u041e\u043f\u0443\u0431\u043b\u0438\u043a\u043e\u0432\u0430\u043d "\u041c\u0430\u043d\u0438\u0444\u0435\u0441\u0442 FreeBSD XXI" \u0441 \u043d\u0435\u043a\u043e\u0442\u043e\u0440\u044b\u043c\u0438 \u0438\u0434\u0435\u044f\u043c\u0438 \u043d\u0430 \u0431\u0443\u0434\u0443\u0449\u0435\u0435
p767
sg740
VMon, 24 Feb 2014 16:52:00 +0600
p768
sg742
g760
sg743
I00
sS'title_detail'
p769
g1
(g2
g3
(dp770
g719
S'http://www.opennet.ru/opennews/opennews_all_noadv.rss'
p771
sg721
S'text/plain'
p772
sg723
Nsg724
g767
stRp773
sg749
g765
sg750
(lp774
g250
aV*
ag251
asg752
Vhttp://www.opennet.ru/opennews/art.shtml?num=39168
p775
stRp776
ag1
(g2
g3
(dp777
S'summary_detail'
p778
g1
(g2
g3
(dp779
g719
S'http://www.opennet.ru/opennews/opennews_all_noadv.rss'
p780
sg721
S'text/html'
p781
sg723
Nsg724
V\u0412  OpenBSD-current \u0434\u043e\u0431\u0430\u0432\u043b\u0435\u043d\u044b \u0438\u0437\u043c\u0435\u043d\u0435\u043d\u0438\u044f, \u043f\u043e\u0437\u0432\u043e\u043b\u044f\u044e\u0449\u0438\u0435 \u0437\u0430\u043f\u0443\u0441\u0442\u0438\u0442\u044c X-\u0441\u0435\u0440\u0432\u0435\u0440 \u0431\u0435\u0437 \u043d\u0435\u043e\u0431\u0445\u043e\u0434\u0438\u043c\u043e\u0441\u0442\u0438 \u0432\u044b\u043f\u043e\u043b\u043d\u0435\u043d\u0438\u044f \u043a\u043e\u0434\u0430 \u0441 \u043f\u0440\u0430\u0432\u0430\u043c\u0438 root \u0434\u043b\u044f \u043a\u043e\u043d\u0444\u0438\u0433\u0443\u0440\u0430\u0446\u0438\u0439 \u0441 \u0432\u0438\u0434\u0435\u043e\u043a\u0430\u0440\u0442\u0430\u043c\u0438  Intel \u0438 AMD \u0434\u043b\u044f \u043a\u043e\u0442\u043e\u0440\u044b\u0445 \u0434\u043e\u0441\u0442\u0443\u043f\u043d\u044b KMS-\u043c\u043e\u0434\u0443\u043b\u0438 \u0434\u043b\u044f \u043f\u0435\u0440\u0435\u043a\u043b\u044e\u0447\u0435\u043d\u0438\u044f \u0432\u0438\u0434\u0435\u043e\u0440\u0435\u0436\u0438\u043c\u043e\u0432 \u043d\u0430 \u0443\u0440\u043e\u0432\u043d\u0435 \u044f\u0434\u0440\u0430. \u0415\u0441\u043b\u0438  \u0443 \u043f\u043e\u043b\u044c\u0437\u043e\u0432\u0430\u0442\u0435\u043b\u044f \u043d\u0435\u0442 \u043f\u043e\u043b\u043d\u043e\u043c\u043e\u0447\u0438\u0439 \u043e\u0442\u043a\u0440\u044b\u0442\u0438\u044f /dev/pciN  \u0432 \u0440\u0435\u0436\u0438\u043c\u0435 \u0447\u0442\u0435\u043d\u0438\u044f \u0438 \u0437\u0430\u043f\u0438\u0441\u0438, \u0444\u0430\u0439\u043b \u0441 \u0443\u0441\u0442\u0440\u043e\u0439\u0441\u0442\u0432\u043e\u043c \u0442\u0435\u043f\u0435\u0440\u044c \u043e\u0442\u043a\u0440\u044b\u0432\u0430\u0435\u0442\u0441\u044f \u0432 \u0440\u0435\u0436\u0438\u043c\u0435 \u0442\u043e\u043b\u044c\u043a\u043e \u0434\u043b\u044f \u0447\u0442\u0435\u043d\u0438\u044f \u0431\u0435\u0437 \u0432\u044b\u0432\u043e\u0434\u0430 \u043e\u0448\u0438\u0431\u043a\u0438, \u0447\u0442\u043e \u043f\u043e\u0437\u0432\u043e\u043b\u044f\u0435\u0442 \u0437\u0430\u043f\u0443\u0441\u043a\u0430\u0442\u044c X-\u0441\u0435\u0440\u0432\u0435\u0440 \u043f\u0440\u0438 \u0443\u0441\u0442\u0430\u043d\u043e\u0432\u043a\u0435 \u043e\u043f\u0446\u0438\u0438 machdep.allowaperture=0 \u0437\u0430 \u0441\u0447\u0435\u0442 \u0438\u0441\u043f\u043e\u043b\u044c\u0437\u043e\u0432\u0430\u043d\u0438\u044f \u0434\u0440\u0430\u0439\u0432\u0435\u0440\u043e\u0432  inteldrm \u0438 radeondrm \u0434\u043b\u044f \u043e\u0440\u0433\u0430\u043d\u0438\u0437\u0430\u0446\u0438\u0438 \u0434\u043e\u0441\u0442\u0443\u043f\u0430 \u043a \u043f\u0430\u043c\u044f\u0442\u0438 \u044f\u0434\u0440\u0430 \u0438 \u0432\u0437\u0430\u0438\u043c\u043e\u0434\u0435\u0439\u0441\u0442\u0432\u0438\u044f \u0441 \u0432\u0438\u0434\u0435\u043e\u043a\u0430\u0440\u0442\u043e\u0439.
p782
stRp783
sg727
g38
((I2014
I2
I24
I10
I39
I32
I0
I55
I0
t(dtRp784
sg729
(lp785
g1
(g2
g3
(dp786
g732
Vhttp://www.opennet.ru/opennews/art.shtml?num=39171
p787
sg721
g734
sg735
g736
stRp788
asg738
V\u0412 OpenBSD \u0434\u043e\u0431\u0430\u0432\u043b\u0435\u043d\u0430 \u043f\u043e\u0434\u0434\u0435\u0440\u0436\u043a\u0430 \u0437\u0430\u043f\u0443\u0441\u043a\u0430 X-\u0441\u0435\u0440\u0432\u0435\u0440\u0430 \u0431\u0435\u0437 root-\u043f\u0440\u0438\u0432\u0438\u043b\u0435\u0433\u0438\u0439
p789
sg740
VMon, 24 Feb 2014 16:39:32 +0600
p790
sg742
g782
sg743
I00
sS'title_detail'
p791
g1
(g2
g3
(dp792
g719
S'http://www.opennet.ru/opennews/opennews_all_noadv.rss'
p793
sg721
S'text/plain'
p794
sg723
Nsg724
g789
stRp795
sg749
g787
sg750
(lp796
g250
aV*
ag251
asg752
Vhttp://www.opennet.ru/opennews/art.shtml?num=39171
p797
stRp798
ag1
(g2
g3
(dp799
S'summary_detail'
p800
g1
(g2
g3
(dp801
g719
S'http://www.opennet.ru/opennews/opennews_all_noadv.rss'
p802
sg721
S'text/html'
p803
sg723
Nsg724
V\u0414\u043e\u0441\u0442\u0443\u043f\u043d\u0430 \u043d\u043e\u0432\u0430\u044f \u0432\u0435\u0440\u0441\u0438\u044f \u0434\u0438\u0441\u0442\u0440\u0438\u0431\u0443\u0442\u0438\u0432\u0430 Manjaro Linux 0.8.9, \u043f\u043e\u0441\u0442\u0440\u043e\u0435\u043d\u043d\u043e\u0433\u043e \u043d\u0430 \u043e\u0441\u043d\u043e\u0432\u0435 Arch Linux \u0438 \u043e\u0440\u0438\u0435\u043d\u0442\u0438\u0440\u043e\u0432\u0430\u043d\u043d\u043e\u0433\u043e \u043d\u0430 \u043d\u0430\u0447\u0438\u043d\u0430\u044e\u0449\u0438\u0445 \u043f\u043e\u043b\u044c\u0437\u043e\u0432\u0430\u0442\u0435\u043b\u0435\u0439. \u0414\u0438\u0441\u0442\u0440\u0438\u0431\u0443\u0442\u0438\u0432  \u043f\u0440\u0438\u043c\u0435\u0447\u0430\u0442\u0435\u043b\u0435\u043d \u043d\u0430\u043b\u0438\u0447\u0438\u0435\u043c \u0443\u043f\u0440\u043e\u0449\u0451\u043d\u043d\u043e\u0433\u043e \u0438 \u0434\u0440\u0443\u0436\u0435\u0441\u0442\u0432\u0435\u043d\u043d\u043e\u0433\u043e \u043f\u043e\u043b\u044c\u0437\u043e\u0432\u0430\u0442\u0435\u043b\u044e \u043f\u0440\u043e\u0446\u0435\u0441\u0441\u0430 \u0443\u0441\u0442\u0430\u043d\u043e\u0432\u043a\u0438, \u043f\u043e\u0434\u0434\u0435\u0440\u0436\u043a\u043e\u0439 \u0430\u0432\u0442\u043e\u043c\u0430\u0442\u0438\u0447\u0435\u0441\u043a\u043e\u0433\u043e \u043e\u043f\u0440\u0435\u0434\u0435\u043b\u0435\u043d\u0438\u044f \u043e\u0431\u043e\u0440\u0443\u0434\u043e\u0432\u0430\u043d\u0438\u044f \u0438 \u0443\u0441\u0442\u0430\u043d\u043e\u0432\u043a\u0438 \u043d\u0435\u043e\u0431\u0445\u043e\u0434\u0438\u043c\u044b\u0445 \u0434\u043b\u044f \u0435\u0433\u043e \u0440\u0430\u0431\u043e\u0442\u044b \u0434\u0440\u0430\u0439\u0432\u0435\u0440\u043e\u0432.  Manjaro \u043f\u043e\u0441\u0442\u0430\u0432\u043b\u044f\u0435\u0442\u0441\u044f  \u0432 \u0432\u0438\u0434\u0435 live-\u0441\u0431\u043e\u0440\u043e\u043a \u0441 \u0433\u0440\u0430\u0444\u0438\u0447\u0435\u0441\u043a\u0438\u043c\u0438 \u043e\u043a\u0440\u0443\u0436\u0435\u043d\u0438\u044f\u043c\u0438 KDE (1.7 \u0413\u0431), Xfce (1.2 \u0413\u0431) \u0438 Openbox (687 \u041c\u0431).
p804
stRp805
sg727
g38
((I2014
I2
I24
I9
I41
I14
I0
I55
I0
t(dtRp806
sg729
(lp807
g1
(g2
g3
(dp808
g732
Vhttp://www.opennet.ru/opennews/art.shtml?num=39170
p809
sg721
g734
sg735
g736
stRp810
asg738
V\u0412\u044b\u043f\u0443\u0441\u043a \u0434\u0438\u0441\u0442\u0440\u0438\u0431\u0443\u0442\u0438\u0432\u0430 Manjaro Linux 0.8.9
p811
sg740
VMon, 24 Feb 2014 15:41:14 +0600
p812
sg742
g804
sg743
I00
sS'title_detail'
p813
g1
(g2
g3
(dp814
g719
S'http://www.opennet.ru/opennews/opennews_all_noadv.rss'
p815
sg721
S'text/plain'
p816
sg723
Nsg724
g811
stRp817
sg749
g809
sg750
(lp818
g250
aV*
ag251
asg752
Vhttp://www.opennet.ru/opennews/art.shtml?num=39170
p819
stRp820
asS'canto_update'
p821
F1393601153.2483051
sS'headers'
p822
(dp823
S'content-length'
p824
S'21846'
p825
sS'accept-ranges'
p826
S'bytes'
p827
sS'server'
p828
S'nginx/0.6.39'
p829
sS'last-modified'
p830
S'Fri, 28 Feb 2014 15:10:03 GMT'
p831
sS'connection'
p832
S'close'
p833
sS'date'
p834
S'Fri, 28 Feb 2014 15:25:52 GMT'
p835
sS'content-type'
p836
S'application/rss+xml'
p837
ssS'version'
p838
S'rss20'
p839
sg67
(lp840
sg22
S'http://www.opennet.ru/opennews/opennews_all_noadv.rss'
p841
sS'namespaces'
p842
(dp843
sS'canto_version'
p844
(I0
I7
I10
tp845
stRp846
.